<main>:
   10150:	81010113          	addi	sp,sp,-2032
   10154:	7e112623          	sw	ra,2028(sp)
   10158:	7e812423          	sw	s0,2024(sp)
   1015c:	7f010413          	addi	s0,sp,2032
   10160:	e6010113          	addi	sp,sp,-416
   10164:	b3040793          	addi	a5,s0,-1232
   10168:	4b800713          	li	a4,1208
   1016c:	00070613          	mv	a2,a4
   10170:	00000593          	li	a1,0
   10174:	00078513          	mv	a0,a5
   10178:	0ad020ef          	jal	ra,12a24 <memset>
   1017c:	02900793          	li	a5,41
   10180:	b2f42823          	sw	a5,-1232(s0)
   10184:	34100793          	li	a5,833
   10188:	b2f42a23          	sw	a5,-1228(s0)
   1018c:	23400793          	li	a5,564
   10190:	b2f42c23          	sw	a5,-1224(s0)
   10194:	0bb00793          	li	a5,187
   10198:	b2f42e23          	sw	a5,-1220(s0)
   1019c:	2ed00793          	li	a5,749
   101a0:	b4f42023          	sw	a5,-1216(s0)
   101a4:	15e00793          	li	a5,350
   101a8:	b4f42223          	sw	a5,-1212(s0)
   101ac:	08400793          	li	a5,132
   101b0:	b4f42423          	sw	a5,-1208(s0)
   101b4:	3b500793          	li	a5,949
   101b8:	b4f42623          	sw	a5,-1204(s0)
   101bc:	24800793          	li	a5,584
   101c0:	b4f42823          	sw	a5,-1200(s0)
   101c4:	32500793          	li	a5,805
   101c8:	b4f42a23          	sw	a5,-1196(s0)
   101cc:	26d00793          	li	a5,621
   101d0:	b4f42c23          	sw	a5,-1192(s0)
   101d4:	00600793          	li	a5,6
   101d8:	b4f42e23          	sw	a5,-1188(s0)
   101dc:	3a300793          	li	a5,931
   101e0:	b6f42023          	sw	a5,-1184(s0)
   101e4:	37a00793          	li	a5,890
   101e8:	b6f42223          	sw	a5,-1180(s0)
   101ec:	18800793          	li	a5,392
   101f0:	b6f42423          	sw	a5,-1176(s0)
   101f4:	2b600793          	li	a5,694
   101f8:	b6f42623          	sw	a5,-1172(s0)
   101fc:	3c100793          	li	a5,961
   10200:	b6f42823          	sw	a5,-1168(s0)
   10204:	06e00793          	li	a5,110
   10208:	b6f42a23          	sw	a5,-1164(s0)
   1020c:	07400793          	li	a5,116
   10210:	b6f42c23          	sw	a5,-1160(s0)
   10214:	12800793          	li	a5,296
   10218:	b6f42e23          	sw	a5,-1156(s0)
   1021c:	1aa00793          	li	a5,426
   10220:	b8f42023          	sw	a5,-1152(s0)
   10224:	13a00793          	li	a5,314
   10228:	b8f42223          	sw	a5,-1148(s0)
   1022c:	29300793          	li	a5,659
   10230:	b8f42423          	sw	a5,-1144(s0)
   10234:	30600793          	li	a5,774
   10238:	b8f42623          	sw	a5,-1140(s0)
   1023c:	13f00793          	li	a5,319
   10240:	b8f42823          	sw	a5,-1136(s0)
   10244:	2a600793          	li	a5,678
   10248:	b8f42a23          	sw	a5,-1132(s0)
   1024c:	36b00793          	li	a5,875
   10250:	b8f42c23          	sw	a5,-1128(s0)
   10254:	17800793          	li	a5,376
   10258:	b8f42e23          	sw	a5,-1124(s0)
   1025c:	1da00793          	li	a5,474
   10260:	baf42023          	sw	a5,-1120(s0)
   10264:	3aa00793          	li	a5,938
   10268:	baf42223          	sw	a5,-1116(s0)
   1026c:	21b00793          	li	a5,539
   10270:	baf42423          	sw	a5,-1112(s0)
   10274:	23900793          	li	a5,569
   10278:	baf42623          	sw	a5,-1108(s0)
   1027c:	0cb00793          	li	a5,203
   10280:	baf42823          	sw	a5,-1104(s0)
   10284:	11800793          	li	a5,280
   10288:	baf42a23          	sw	a5,-1100(s0)
   1028c:	2f700793          	li	a5,759
   10290:	baf42c23          	sw	a5,-1096(s0)
   10294:	25e00793          	li	a5,606
   10298:	baf42e23          	sw	a5,-1092(s0)
   1029c:	1ff00793          	li	a5,511
   102a0:	bcf42023          	sw	a5,-1088(s0)
   102a4:	29100793          	li	a5,657
   102a8:	bcf42223          	sw	a5,-1084(s0)
   102ac:	0c300793          	li	a5,195
   102b0:	bcf42423          	sw	a5,-1080(s0)
   102b4:	05100793          	li	a5,81
   102b8:	bcf42623          	sw	a5,-1076(s0)
   102bc:	10b00793          	li	a5,267
   102c0:	bcf42823          	sw	a5,-1072(s0)
   102c4:	0e500793          	li	a5,229
   102c8:	bcf42a23          	sw	a5,-1068(s0)
   102cc:	15100793          	li	a5,337
   102d0:	bcf42c23          	sw	a5,-1064(s0)
   102d4:	3b000793          	li	a5,944
   102d8:	bcf42e23          	sw	a5,-1060(s0)
   102dc:	38600793          	li	a5,902
   102e0:	bef42023          	sw	a5,-1056(s0)
   102e4:	0f100793          	li	a5,241
   102e8:	bef42223          	sw	a5,-1052(s0)
   102ec:	39100793          	li	a5,913
   102f0:	bef42423          	sw	a5,-1048(s0)
   102f4:	33a00793          	li	a5,826
   102f8:	bef42623          	sw	a5,-1044(s0)
   102fc:	3a500793          	li	a5,933
   10300:	bef42823          	sw	a5,-1040(s0)
   10304:	3d900793          	li	a5,985
   10308:	bef42a23          	sw	a5,-1036(s0)
   1030c:	0c300793          	li	a5,195
   10310:	bef42c23          	sw	a5,-1032(s0)
   10314:	3c000793          	li	a5,960
   10318:	bef42e23          	sw	a5,-1028(s0)
   1031c:	23600793          	li	a5,566
   10320:	c0f42023          	sw	a5,-1024(s0)
   10324:	15e00793          	li	a5,350
   10328:	c0f42223          	sw	a5,-1020(s0)
   1032c:	28900793          	li	a5,649
   10330:	c0f42423          	sw	a5,-1016(s0)
   10334:	29100793          	li	a5,657
   10338:	c0f42623          	sw	a5,-1012(s0)
   1033c:	0b500793          	li	a5,181
   10340:	c0f42823          	sw	a5,-1008(s0)
   10344:	06f00793          	li	a5,111
   10348:	c0f42a23          	sw	a5,-1004(s0)
   1034c:	35b00793          	li	a5,859
   10350:	c0f42c23          	sw	a5,-1000(s0)
   10354:	04100793          	li	a5,65
   10358:	c0f42e23          	sw	a5,-996(s0)
   1035c:	12000793          	li	a5,288
   10360:	c2f42023          	sw	a5,-992(s0)
   10364:	15d00793          	li	a5,349
   10368:	c2f42223          	sw	a5,-988(s0)
   1036c:	08d00793          	li	a5,141
   10370:	c2f42423          	sw	a5,-984(s0)
   10374:	38900793          	li	a5,905
   10378:	c2f42623          	sw	a5,-980(s0)
   1037c:	37600793          	li	a5,886
   10380:	c2f42823          	sw	a5,-976(s0)
   10384:	10800793          	li	a5,264
   10388:	c2f42a23          	sw	a5,-972(s0)
   1038c:	24000793          	li	a5,576
   10390:	c2f42c23          	sw	a5,-968(s0)
   10394:	3d300793          	li	a5,979
   10398:	c2f42e23          	sw	a5,-964(s0)
   1039c:	2f900793          	li	a5,761
   103a0:	c4f42023          	sw	a5,-960(s0)
   103a4:	0f100793          	li	a5,241
   103a8:	c4f42223          	sw	a5,-956(s0)
   103ac:	1de00793          	li	a5,478
   103b0:	c4f42423          	sw	a5,-952(s0)
   103b4:	1f300793          	li	a5,499
   103b8:	c4f42623          	sw	a5,-948(s0)
   103bc:	19300793          	li	a5,403
   103c0:	c4f42823          	sw	a5,-944(s0)
   103c4:	0de00793          	li	a5,222
   103c8:	c4f42a23          	sw	a5,-940(s0)
   103cc:	1bc00793          	li	a5,444
   103d0:	c4f42c23          	sw	a5,-936(s0)
   103d4:	2d100793          	li	a5,721
   103d8:	c4f42e23          	sw	a5,-932(s0)
   103dc:	2a400793          	li	a5,676
   103e0:	c6f42023          	sw	a5,-928(s0)
   103e4:	13d00793          	li	a5,317
   103e8:	c6f42223          	sw	a5,-924(s0)
   103ec:	0e000793          	li	a5,224
   103f0:	c6f42423          	sw	a5,-920(s0)
   103f4:	3a900793          	li	a5,937
   103f8:	c6f42623          	sw	a5,-916(s0)
   103fc:	12000793          	li	a5,288
   10400:	c6f42823          	sw	a5,-912(s0)
   10404:	07700793          	li	a5,119
   10408:	c6f42a23          	sw	a5,-908(s0)
   1040c:	26700793          	li	a5,615
   10410:	c6f42c23          	sw	a5,-904(s0)
   10414:	25e00793          	li	a5,606
   10418:	c6f42e23          	sw	a5,-900(s0)
   1041c:	18500793          	li	a5,389
   10420:	c8f42023          	sw	a5,-896(s0)
   10424:	15f00793          	li	a5,351
   10428:	c8f42223          	sw	a5,-892(s0)
   1042c:	1c700793          	li	a5,455
   10430:	c8f42423          	sw	a5,-888(s0)
   10434:	11600793          	li	a5,278
   10438:	c8f42623          	sw	a5,-884(s0)
   1043c:	16f00793          	li	a5,367
   10440:	c8f42823          	sw	a5,-880(s0)
   10444:	16600793          	li	a5,358
   10448:	c8f42a23          	sw	a5,-876(s0)
   1044c:	24800793          	li	a5,584
   10450:	c8f42c23          	sw	a5,-872(s0)
   10454:	03e00793          	li	a5,62
   10458:	c8f42e23          	sw	a5,-868(s0)
   1045c:	3d900793          	li	a5,985
   10460:	caf42023          	sw	a5,-864(s0)
   10464:	19300793          	li	a5,403
   10468:	caf42223          	sw	a5,-860(s0)
   1046c:	15a00793          	li	a5,346
   10470:	caf42423          	sw	a5,-856(s0)
   10474:	20500793          	li	a5,517
   10478:	caf42623          	sw	a5,-852(s0)
   1047c:	22f00793          	li	a5,559
   10480:	caf42823          	sw	a5,-848(s0)
   10484:	38c00793          	li	a5,908
   10488:	caf42a23          	sw	a5,-844(s0)
   1048c:	30700793          	li	a5,775
   10490:	caf42c23          	sw	a5,-840(s0)
   10494:	0ff00793          	li	a5,255
   10498:	caf42e23          	sw	a5,-836(s0)
   1049c:	30a00793          	li	a5,778
   104a0:	ccf42023          	sw	a5,-832(s0)
   104a4:	25600793          	li	a5,598
   104a8:	ccf42223          	sw	a5,-828(s0)
   104ac:	08f00793          	li	a5,143
   104b0:	ccf42423          	sw	a5,-824(s0)
   104b4:	02100793          	li	a5,33
   104b8:	ccf42623          	sw	a5,-820(s0)
   104bc:	07d00793          	li	a5,125
   104c0:	ccf42823          	sw	a5,-816(s0)
   104c4:	3ad00793          	li	a5,941
   104c8:	ccf42a23          	sw	a5,-812(s0)
   104cc:	3a500793          	li	a5,933
   104d0:	ccf42c23          	sw	a5,-808(s0)
   104d4:	31f00793          	li	a5,799
   104d8:	ccf42e23          	sw	a5,-804(s0)
   104dc:	22900793          	li	a5,553
   104e0:	cef42023          	sw	a5,-800(s0)
   104e4:	1af00793          	li	a5,431
   104e8:	cef42223          	sw	a5,-796(s0)
   104ec:	28800793          	li	a5,648
   104f0:	cef42423          	sw	a5,-792(s0)
   104f4:	3b800793          	li	a5,952
   104f8:	cef42623          	sw	a5,-788(s0)
   104fc:	11f00793          	li	a5,287
   10500:	cef42823          	sw	a5,-784(s0)
   10504:	01300793          	li	a5,19
   10508:	cef42a23          	sw	a5,-780(s0)
   1050c:	03100793          	li	a5,49
   10510:	cef42c23          	sw	a5,-776(s0)
   10514:	05600793          	li	a5,86
   10518:	cef42e23          	sw	a5,-772(s0)
   1051c:	05f00793          	li	a5,95
   10520:	d0f42023          	sw	a5,-768(s0)
   10524:	1b900793          	li	a5,441
   10528:	d0f42223          	sw	a5,-764(s0)
   1052c:	24b00793          	li	a5,587
   10530:	d0f42423          	sw	a5,-760(s0)
   10534:	26600793          	li	a5,614
   10538:	d0f42623          	sw	a5,-756(s0)
   1053c:	17e00793          	li	a5,382
   10540:	d0f42823          	sw	a5,-752(s0)
   10544:	11800793          	li	a5,280
   10548:	d0f42a23          	sw	a5,-748(s0)
   1054c:	32800793          	li	a5,808
   10550:	d0f42c23          	sw	a5,-744(s0)
   10554:	3cb00793          	li	a5,971
   10558:	d0f42e23          	sw	a5,-740(s0)
   1055c:	33300793          	li	a5,819
   10560:	d2f42023          	sw	a5,-736(s0)
   10564:	15800793          	li	a5,344
   10568:	d2f42223          	sw	a5,-732(s0)
   1056c:	1c200793          	li	a5,450
   10570:	d2f42423          	sw	a5,-728(s0)
   10574:	20000793          	li	a5,512
   10578:	d2f42623          	sw	a5,-724(s0)
   1057c:	3c500793          	li	a5,965
   10580:	d2f42823          	sw	a5,-720(s0)
   10584:	15b00793          	li	a5,347
   10588:	d2f42a23          	sw	a5,-716(s0)
   1058c:	32800793          	li	a5,808
   10590:	d2f42c23          	sw	a5,-712(s0)
   10594:	37200793          	li	a5,882
   10598:	d2f42e23          	sw	a5,-708(s0)
   1059c:	21900793          	li	a5,537
   105a0:	d4f42023          	sw	a5,-704(s0)
   105a4:	3b200793          	li	a5,946
   105a8:	d4f42223          	sw	a5,-700(s0)
   105ac:	2bd00793          	li	a5,701
   105b0:	d4f42423          	sw	a5,-696(s0)
   105b4:	16400793          	li	a5,356
   105b8:	d4f42623          	sw	a5,-692(s0)
   105bc:	23700793          	li	a5,567
   105c0:	d4f42823          	sw	a5,-688(s0)
   105c4:	37b00793          	li	a5,891
   105c8:	d4f42a23          	sw	a5,-684(s0)
   105cc:	01600793          	li	a5,22
   105d0:	d4f42c23          	sw	a5,-680(s0)
   105d4:	23800793          	li	a5,568
   105d8:	d4f42e23          	sw	a5,-676(s0)
   105dc:	29900793          	li	a5,665
   105e0:	d6f42023          	sw	a5,-672(s0)
   105e4:	1a700793          	li	a5,423
   105e8:	d6f42223          	sw	a5,-668(s0)
   105ec:	1b200793          	li	a5,434
   105f0:	d6f42423          	sw	a5,-664(s0)
   105f4:	09e00793          	li	a5,158
   105f8:	d6f42623          	sw	a5,-660(s0)
   105fc:	00200793          	li	a5,2
   10600:	d6f42823          	sw	a5,-656(s0)
   10604:	05400793          	li	a5,84
   10608:	d6f42a23          	sw	a5,-652(s0)
   1060c:	0f700793          	li	a5,247
   10610:	d6f42c23          	sw	a5,-648(s0)
   10614:	03100793          	li	a5,49
   10618:	d6f42e23          	sw	a5,-644(s0)
   1061c:	1b300793          	li	a5,435
   10620:	d8f42023          	sw	a5,-640(s0)
   10624:	31800793          	li	a5,792
   10628:	d8f42223          	sw	a5,-636(s0)
   1062c:	36500793          	li	a5,869
   10630:	d8f42423          	sw	a5,-632(s0)
   10634:	1e600793          	li	a5,486
   10638:	d8f42623          	sw	a5,-628(s0)
   1063c:	19e00793          	li	a5,414
   10640:	d8f42823          	sw	a5,-624(s0)
   10644:	17100793          	li	a5,369
   10648:	d8f42a23          	sw	a5,-620(s0)
   1064c:	22400793          	li	a5,548
   10650:	d8f42c23          	sw	a5,-616(s0)
   10654:	20600793          	li	a5,518
   10658:	d8f42e23          	sw	a5,-612(s0)
   1065c:	37800793          	li	a5,888
   10660:	daf42023          	sw	a5,-608(s0)
   10664:	2aa00793          	li	a5,682
   10668:	daf42223          	sw	a5,-604(s0)
   1066c:	11c00793          	li	a5,284
   10670:	daf42423          	sw	a5,-600(s0)
   10674:	10800793          	li	a5,264
   10678:	daf42623          	sw	a5,-596(s0)
   1067c:	1f300793          	li	a5,499
   10680:	daf42823          	sw	a5,-592(s0)
   10684:	12200793          	li	a5,290
   10688:	daf42a23          	sw	a5,-588(s0)
   1068c:	38100793          	li	a5,897
   10690:	daf42c23          	sw	a5,-584(s0)
   10694:	0d700793          	li	a5,215
   10698:	daf42e23          	sw	a5,-580(s0)
   1069c:	2db00793          	li	a5,731
   106a0:	dcf42023          	sw	a5,-576(s0)
   106a4:	2b000793          	li	a5,688
   106a8:	dcf42223          	sw	a5,-572(s0)
   106ac:	0fb00793          	li	a5,251
   106b0:	dcf42423          	sw	a5,-568(s0)
   106b4:	31200793          	li	a5,786
   106b8:	dcf42623          	sw	a5,-564(s0)
   106bc:	22b00793          	li	a5,555
   106c0:	dcf42823          	sw	a5,-560(s0)
   106c4:	12e00793          	li	a5,302
   106c8:	dcf42a23          	sw	a5,-556(s0)
   106cc:	21000793          	li	a5,528
   106d0:	dcf42c23          	sw	a5,-552(s0)
   106d4:	22000793          	li	a5,544
   106d8:	dcf42e23          	sw	a5,-548(s0)
   106dc:	14200793          	li	a5,322
   106e0:	def42023          	sw	a5,-544(s0)
   106e4:	3b300793          	li	a5,947
   106e8:	def42223          	sw	a5,-540(s0)
   106ec:	11f00793          	li	a5,287
   106f0:	def42423          	sw	a5,-536(s0)
   106f4:	33800793          	li	a5,824
   106f8:	def42623          	sw	a5,-532(s0)
   106fc:	13000793          	li	a5,304
   10700:	def42823          	sw	a5,-528(s0)
   10704:	31400793          	li	a5,788
   10708:	def42a23          	sw	a5,-524(s0)
   1070c:	2dd00793          	li	a5,733
   10710:	def42c23          	sw	a5,-520(s0)
   10714:	3bf00793          	li	a5,959
   10718:	def42e23          	sw	a5,-516(s0)
   1071c:	16e00793          	li	a5,366
   10720:	e0f42023          	sw	a5,-512(s0)
   10724:	2d200793          	li	a5,722
   10728:	e0f42223          	sw	a5,-508(s0)
   1072c:	12600793          	li	a5,294
   10730:	e0f42423          	sw	a5,-504(s0)
   10734:	3cf00793          	li	a5,975
   10738:	e0f42623          	sw	a5,-500(s0)
   1073c:	28d00793          	li	a5,653
   10740:	e0f42823          	sw	a5,-496(s0)
   10744:	2ec00793          	li	a5,748
   10748:	e0f42a23          	sw	a5,-492(s0)
   1074c:	05b00793          	li	a5,91
   10750:	e0f42c23          	sw	a5,-488(s0)
   10754:	17a00793          	li	a5,378
   10758:	e0f42e23          	sw	a5,-484(s0)
   1075c:	06900793          	li	a5,105
   10760:	e2f42023          	sw	a5,-480(s0)
   10764:	06600793          	li	a5,102
   10768:	e2f42223          	sw	a5,-476(s0)
   1076c:	17d00793          	li	a5,381
   10770:	e2f42423          	sw	a5,-472(s0)
   10774:	28b00793          	li	a5,651
   10778:	e2f42623          	sw	a5,-468(s0)
   1077c:	33900793          	li	a5,825
   10780:	e2f42823          	sw	a5,-464(s0)
   10784:	34800793          	li	a5,840
   10788:	e2f42a23          	sw	a5,-460(s0)
   1078c:	16400793          	li	a5,356
   10790:	e2f42c23          	sw	a5,-456(s0)
   10794:	09400793          	li	a5,148
   10798:	e2f42e23          	sw	a5,-452(s0)
   1079c:	03600793          	li	a5,54
   107a0:	e4f42023          	sw	a5,-448(s0)
   107a4:	08c00793          	li	a5,140
   107a8:	e4f42223          	sw	a5,-444(s0)
   107ac:	3bb00793          	li	a5,955
   107b0:	e4f42423          	sw	a5,-440(s0)
   107b4:	15700793          	li	a5,343
   107b8:	e4f42623          	sw	a5,-436(s0)
   107bc:	21500793          	li	a5,533
   107c0:	e4f42823          	sw	a5,-432(s0)
   107c4:	2f500793          	li	a5,757
   107c8:	e4f42a23          	sw	a5,-428(s0)
   107cc:	20900793          	li	a5,521
   107d0:	e4f42c23          	sw	a5,-424(s0)
   107d4:	34500793          	li	a5,837
   107d8:	e4f42e23          	sw	a5,-420(s0)
   107dc:	25000793          	li	a5,592
   107e0:	e6f42023          	sw	a5,-416(s0)
   107e4:	00d00793          	li	a5,13
   107e8:	e6f42223          	sw	a5,-412(s0)
   107ec:	0ad00793          	li	a5,173
   107f0:	e6f42423          	sw	a5,-408(s0)
   107f4:	03f00793          	li	a5,63
   107f8:	e6f42623          	sw	a5,-404(s0)
   107fc:	07900793          	li	a5,121
   10800:	e6f42823          	sw	a5,-400(s0)
   10804:	08500793          	li	a5,133
   10808:	e6f42a23          	sw	a5,-396(s0)
   1080c:	2f600793          	li	a5,758
   10810:	e6f42c23          	sw	a5,-392(s0)
   10814:	17400793          	li	a5,372
   10818:	e6f42e23          	sw	a5,-388(s0)
   1081c:	3b700793          	li	a5,951
   10820:	e8f42023          	sw	a5,-384(s0)
   10824:	02700793          	li	a5,39
   10828:	e8f42223          	sw	a5,-380(s0)
   1082c:	08100793          	li	a5,129
   10830:	e8f42423          	sw	a5,-376(s0)
   10834:	06e00793          	li	a5,110
   10838:	e8f42623          	sw	a5,-372(s0)
   1083c:	34f00793          	li	a5,847
   10840:	e8f42823          	sw	a5,-368(s0)
   10844:	1b500793          	li	a5,437
   10848:	e8f42a23          	sw	a5,-364(s0)
   1084c:	0ff00793          	li	a5,255
   10850:	e8f42c23          	sw	a5,-360(s0)
   10854:	10d00793          	li	a5,269
   10858:	e8f42e23          	sw	a5,-356(s0)
   1085c:	19900793          	li	a5,409
   10860:	eaf42023          	sw	a5,-352(s0)
   10864:	27400793          	li	a5,628
   10868:	eaf42223          	sw	a5,-348(s0)
   1086c:	18f00793          	li	a5,399
   10870:	eaf42423          	sw	a5,-344(s0)
   10874:	22500793          	li	a5,549
   10878:	eaf42623          	sw	a5,-340(s0)
   1087c:	2f100793          	li	a5,753
   10880:	eaf42823          	sw	a5,-336(s0)
   10884:	23400793          	li	a5,564
   10888:	eaf42a23          	sw	a5,-332(s0)
   1088c:	0ab00793          	li	a5,171
   10890:	eaf42c23          	sw	a5,-328(s0)
   10894:	01300793          	li	a5,19
   10898:	eaf42e23          	sw	a5,-324(s0)
   1089c:	2d700793          	li	a5,727
   108a0:	ecf42023          	sw	a5,-320(s0)
   108a4:	1f500793          	li	a5,501
   108a8:	ecf42223          	sw	a5,-316(s0)
   108ac:	30900793          	li	a5,777
   108b0:	ecf42423          	sw	a5,-312(s0)
   108b4:	02b00793          	li	a5,43
   108b8:	ecf42623          	sw	a5,-308(s0)
   108bc:	2f100793          	li	a5,753
   108c0:	ecf42823          	sw	a5,-304(s0)
   108c4:	05100793          	li	a5,81
   108c8:	ecf42a23          	sw	a5,-300(s0)
   108cc:	0ca00793          	li	a5,202
   108d0:	ecf42c23          	sw	a5,-296(s0)
   108d4:	35500793          	li	a5,853
   108d8:	ecf42e23          	sw	a5,-292(s0)
   108dc:	09900793          	li	a5,153
   108e0:	eef42023          	sw	a5,-288(s0)
   108e4:	2f800793          	li	a5,760
   108e8:	eef42223          	sw	a5,-284(s0)
   108ec:	16500793          	li	a5,357
   108f0:	eef42423          	sw	a5,-280(s0)
   108f4:	3af00793          	li	a5,943
   108f8:	eef42623          	sw	a5,-276(s0)
   108fc:	39a00793          	li	a5,922
   10900:	eef42823          	sw	a5,-272(s0)
   10904:	14800793          	li	a5,328
   10908:	eef42a23          	sw	a5,-268(s0)
   1090c:	1f000793          	li	a5,496
   10910:	eef42c23          	sw	a5,-264(s0)
   10914:	1ba00793          	li	a5,442
   10918:	eef42e23          	sw	a5,-260(s0)
   1091c:	20400793          	li	a5,516
   10920:	f0f42023          	sw	a5,-256(s0)
   10924:	28100793          	li	a5,641
   10928:	f0f42223          	sw	a5,-252(s0)
   1092c:	11400793          	li	a5,276
   10930:	f0f42423          	sw	a5,-248(s0)
   10934:	31200793          	li	a5,786
   10938:	f0f42623          	sw	a5,-244(s0)
   1093c:	07100793          	li	a5,113
   10940:	f0f42823          	sw	a5,-240(s0)
   10944:	34a00793          	li	a5,842
   10948:	f0f42a23          	sw	a5,-236(s0)
   1094c:	38b00793          	li	a5,907
   10950:	f0f42c23          	sw	a5,-232(s0)
   10954:	11300793          	li	a5,275
   10958:	f0f42e23          	sw	a5,-228(s0)
   1095c:	0ed00793          	li	a5,237
   10960:	f2f42023          	sw	a5,-224(s0)
   10964:	02000793          	li	a5,32
   10968:	f2f42223          	sw	a5,-220(s0)
   1096c:	31000793          	li	a5,784
   10970:	f2f42423          	sw	a5,-216(s0)
   10974:	23500793          	li	a5,565
   10978:	f2f42623          	sw	a5,-212(s0)
   1097c:	16500793          	li	a5,357
   10980:	f2f42823          	sw	a5,-208(s0)
   10984:	32300793          	li	a5,803
   10988:	f2f42a23          	sw	a5,-204(s0)
   1098c:	33300793          	li	a5,819
   10990:	f2f42c23          	sw	a5,-200(s0)
   10994:	2ef00793          	li	a5,751
   10998:	f2f42e23          	sw	a5,-196(s0)
   1099c:	11800793          	li	a5,280
   109a0:	f4f42023          	sw	a5,-192(s0)
   109a4:	05500793          	li	a5,85
   109a8:	f4f42223          	sw	a5,-188(s0)
   109ac:	1ca00793          	li	a5,458
   109b0:	f4f42423          	sw	a5,-184(s0)
   109b4:	1c600793          	li	a5,454
   109b8:	f4f42623          	sw	a5,-180(s0)
   109bc:	2c600793          	li	a5,710
   109c0:	f4f42823          	sw	a5,-176(s0)
   109c4:	1cb00793          	li	a5,459
   109c8:	f4f42a23          	sw	a5,-172(s0)
   109cc:	02900793          	li	a5,41
   109d0:	f4f42c23          	sw	a5,-168(s0)
   109d4:	0fd00793          	li	a5,253
   109d8:	f4f42e23          	sw	a5,-164(s0)
   109dc:	17900793          	li	a5,377
   109e0:	f6f42023          	sw	a5,-160(s0)
   109e4:	1fc00793          	li	a5,508
   109e8:	f6f42223          	sw	a5,-156(s0)
   109ec:	2bc00793          	li	a5,700
   109f0:	f6f42423          	sw	a5,-152(s0)
   109f4:	35c00793          	li	a5,860
   109f8:	f6f42623          	sw	a5,-148(s0)
   109fc:	1e000793          	li	a5,480
   10a00:	f6f42823          	sw	a5,-144(s0)
   10a04:	2e500793          	li	a5,741
   10a08:	f6f42a23          	sw	a5,-140(s0)
   10a0c:	1f300793          	li	a5,499
   10a10:	f6f42c23          	sw	a5,-136(s0)
   10a14:	2c500793          	li	a5,709
   10a18:	f6f42e23          	sw	a5,-132(s0)
   10a1c:	03100793          	li	a5,49
   10a20:	f8f42023          	sw	a5,-128(s0)
   10a24:	17300793          	li	a5,371
   10a28:	f8f42223          	sw	a5,-124(s0)
   10a2c:	36900793          	li	a5,873
   10a30:	f8f42423          	sw	a5,-120(s0)
   10a34:	3b100793          	li	a5,945
   10a38:	f8f42623          	sw	a5,-116(s0)
   10a3c:	3e000793          	li	a5,992
   10a40:	f8f42823          	sw	a5,-112(s0)
   10a44:	20e00793          	li	a5,526
   10a48:	f8f42a23          	sw	a5,-108(s0)
   10a4c:	2d100793          	li	a5,721
   10a50:	f8f42c23          	sw	a5,-104(s0)
   10a54:	1b300793          	li	a5,435
   10a58:	f8f42e23          	sw	a5,-100(s0)
   10a5c:	0e800793          	li	a5,232
   10a60:	faf42023          	sw	a5,-96(s0)
   10a64:	1f100793          	li	a5,497
   10a68:	faf42223          	sw	a5,-92(s0)
   10a6c:	2b900793          	li	a5,697
   10a70:	faf42423          	sw	a5,-88(s0)
   10a74:	01e00793          	li	a5,30
   10a78:	faf42623          	sw	a5,-84(s0)
   10a7c:	15c00793          	li	a5,348
   10a80:	faf42823          	sw	a5,-80(s0)
   10a84:	0fa00793          	li	a5,250
   10a88:	faf42a23          	sw	a5,-76(s0)
   10a8c:	15e00793          	li	a5,350
   10a90:	faf42c23          	sw	a5,-72(s0)
   10a94:	0fa00793          	li	a5,250
   10a98:	faf42e23          	sw	a5,-68(s0)
   10a9c:	23d00793          	li	a5,573
   10aa0:	fcf42023          	sw	a5,-64(s0)
   10aa4:	31000793          	li	a5,784
   10aa8:	fcf42223          	sw	a5,-60(s0)
   10aac:	2ed00793          	li	a5,749
   10ab0:	fcf42423          	sw	a5,-56(s0)
   10ab4:	1f600793          	li	a5,502
   10ab8:	fcf42623          	sw	a5,-52(s0)
   10abc:	33700793          	li	a5,823
   10ac0:	fcf42823          	sw	a5,-48(s0)
   10ac4:	33a00793          	li	a5,826
   10ac8:	fcf42a23          	sw	a5,-44(s0)
   10acc:	0aa00793          	li	a5,170
   10ad0:	fcf42c23          	sw	a5,-40(s0)
   10ad4:	0a000793          	li	a5,160
   10ad8:	fcf42e23          	sw	a5,-36(s0)
   10adc:	fffff7b7          	lui	a5,0xfffff
   10ae0:	ff040713          	addi	a4,s0,-16
   10ae4:	00f707b3          	add	a5,a4,a5
   10ae8:	68878793          	addi	a5,a5,1672 # fffff688 <__global_pointer$+0xfffebe78>
   10aec:	4b800713          	li	a4,1208
   10af0:	00070613          	mv	a2,a4
   10af4:	00000593          	li	a1,0
   10af8:	00078513          	mv	a0,a5
   10afc:	729010ef          	jal	ra,12a24 <memset>
   10b00:	fffff7b7          	lui	a5,0xfffff
   10b04:	ff040713          	addi	a4,s0,-16
   10b08:	00f707b3          	add	a5,a4,a5
   10b0c:	1c600713          	li	a4,454
   10b10:	68e7a423          	sw	a4,1672(a5) # fffff688 <__global_pointer$+0xfffebe78>
   10b14:	fffff7b7          	lui	a5,0xfffff
   10b18:	ff040713          	addi	a4,s0,-16
   10b1c:	00f707b3          	add	a5,a4,a5
   10b20:	14f00713          	li	a4,335
   10b24:	68e7a623          	sw	a4,1676(a5) # fffff68c <__global_pointer$+0xfffebe7c>
   10b28:	fffff7b7          	lui	a5,0xfffff
   10b2c:	ff040713          	addi	a4,s0,-16
   10b30:	00f707b3          	add	a5,a4,a5
   10b34:	00100713          	li	a4,1
   10b38:	68e7a823          	sw	a4,1680(a5) # fffff690 <__global_pointer$+0xfffebe80>
   10b3c:	fffff7b7          	lui	a5,0xfffff
   10b40:	ff040713          	addi	a4,s0,-16
   10b44:	00f707b3          	add	a5,a4,a5
   10b48:	3dd00713          	li	a4,989
   10b4c:	68e7aa23          	sw	a4,1684(a5) # fffff694 <__global_pointer$+0xfffebe84>
   10b50:	fffff7b7          	lui	a5,0xfffff
   10b54:	ff040713          	addi	a4,s0,-16
   10b58:	00f707b3          	add	a5,a4,a5
   10b5c:	16d00713          	li	a4,365
   10b60:	68e7ac23          	sw	a4,1688(a5) # fffff698 <__global_pointer$+0xfffebe88>
   10b64:	fffff7b7          	lui	a5,0xfffff
   10b68:	ff040713          	addi	a4,s0,-16
   10b6c:	00f707b3          	add	a5,a4,a5
   10b70:	23c00713          	li	a4,572
   10b74:	68e7ae23          	sw	a4,1692(a5) # fffff69c <__global_pointer$+0xfffebe8c>
   10b78:	fffff7b7          	lui	a5,0xfffff
   10b7c:	ff040713          	addi	a4,s0,-16
   10b80:	00f707b3          	add	a5,a4,a5
   10b84:	04000713          	li	a4,64
   10b88:	6ae7a023          	sw	a4,1696(a5) # fffff6a0 <__global_pointer$+0xfffebe90>
   10b8c:	fffff7b7          	lui	a5,0xfffff
   10b90:	ff040713          	addi	a4,s0,-16
   10b94:	00f707b3          	add	a5,a4,a5
   10b98:	09900713          	li	a4,153
   10b9c:	6ae7a223          	sw	a4,1700(a5) # fffff6a4 <__global_pointer$+0xfffebe94>
   10ba0:	fffff7b7          	lui	a5,0xfffff
   10ba4:	ff040713          	addi	a4,s0,-16
   10ba8:	00f707b3          	add	a5,a4,a5
   10bac:	0d800713          	li	a4,216
   10bb0:	6ae7a423          	sw	a4,1704(a5) # fffff6a8 <__global_pointer$+0xfffebe98>
   10bb4:	fffff7b7          	lui	a5,0xfffff
   10bb8:	ff040713          	addi	a4,s0,-16
   10bbc:	00f707b3          	add	a5,a4,a5
   10bc0:	08c00713          	li	a4,140
   10bc4:	6ae7a623          	sw	a4,1708(a5) # fffff6ac <__global_pointer$+0xfffebe9c>
   10bc8:	fffff7b7          	lui	a5,0xfffff
   10bcc:	ff040713          	addi	a4,s0,-16
   10bd0:	00f707b3          	add	a5,a4,a5
   10bd4:	0d200713          	li	a4,210
   10bd8:	6ae7a823          	sw	a4,1712(a5) # fffff6b0 <__global_pointer$+0xfffebea0>
   10bdc:	fffff7b7          	lui	a5,0xfffff
   10be0:	ff040713          	addi	a4,s0,-16
   10be4:	00f707b3          	add	a5,a4,a5
   10be8:	23c00713          	li	a4,572
   10bec:	6ae7aa23          	sw	a4,1716(a5) # fffff6b4 <__global_pointer$+0xfffebea4>
   10bf0:	fffff7b7          	lui	a5,0xfffff
   10bf4:	ff040713          	addi	a4,s0,-16
   10bf8:	00f707b3          	add	a5,a4,a5
   10bfc:	15300713          	li	a4,339
   10c00:	6ae7ac23          	sw	a4,1720(a5) # fffff6b8 <__global_pointer$+0xfffebea8>
   10c04:	fffff7b7          	lui	a5,0xfffff
   10c08:	ff040713          	addi	a4,s0,-16
   10c0c:	00f707b3          	add	a5,a4,a5
   10c10:	25100713          	li	a4,593
   10c14:	6ae7ae23          	sw	a4,1724(a5) # fffff6bc <__global_pointer$+0xfffebeac>
   10c18:	fffff7b7          	lui	a5,0xfffff
   10c1c:	ff040713          	addi	a4,s0,-16
   10c20:	00f707b3          	add	a5,a4,a5
   10c24:	38200713          	li	a4,898
   10c28:	6ce7a023          	sw	a4,1728(a5) # fffff6c0 <__global_pointer$+0xfffebeb0>
   10c2c:	fffff7b7          	lui	a5,0xfffff
   10c30:	ff040713          	addi	a4,s0,-16
   10c34:	00f707b3          	add	a5,a4,a5
   10c38:	0e400713          	li	a4,228
   10c3c:	6ce7a223          	sw	a4,1732(a5) # fffff6c4 <__global_pointer$+0xfffebeb4>
   10c40:	fffff7b7          	lui	a5,0xfffff
   10c44:	ff040713          	addi	a4,s0,-16
   10c48:	00f707b3          	add	a5,a4,a5
   10c4c:	00c00713          	li	a4,12
   10c50:	6ce7a423          	sw	a4,1736(a5) # fffff6c8 <__global_pointer$+0xfffebeb8>
   10c54:	fffff7b7          	lui	a5,0xfffff
   10c58:	ff040713          	addi	a4,s0,-16
   10c5c:	00f707b3          	add	a5,a4,a5
   10c60:	37300713          	li	a4,883
   10c64:	6ce7a623          	sw	a4,1740(a5) # fffff6cc <__global_pointer$+0xfffebebc>
   10c68:	fffff7b7          	lui	a5,0xfffff
   10c6c:	ff040713          	addi	a4,s0,-16
   10c70:	00f707b3          	add	a5,a4,a5
   10c74:	2ee00713          	li	a4,750
   10c78:	6ce7a823          	sw	a4,1744(a5) # fffff6d0 <__global_pointer$+0xfffebec0>
   10c7c:	fffff7b7          	lui	a5,0xfffff
   10c80:	ff040713          	addi	a4,s0,-16
   10c84:	00f707b3          	add	a5,a4,a5
   10c88:	28600713          	li	a4,646
   10c8c:	6ce7aa23          	sw	a4,1748(a5) # fffff6d4 <__global_pointer$+0xfffebec4>
   10c90:	fffff7b7          	lui	a5,0xfffff
   10c94:	ff040713          	addi	a4,s0,-16
   10c98:	00f707b3          	add	a5,a4,a5
   10c9c:	1f400713          	li	a4,500
   10ca0:	6ce7ac23          	sw	a4,1752(a5) # fffff6d8 <__global_pointer$+0xfffebec8>
   10ca4:	fffff7b7          	lui	a5,0xfffff
   10ca8:	ff040713          	addi	a4,s0,-16
   10cac:	00f707b3          	add	a5,a4,a5
   10cb0:	1b400713          	li	a4,436
   10cb4:	6ce7ae23          	sw	a4,1756(a5) # fffff6dc <__global_pointer$+0xfffebecc>
   10cb8:	fffff7b7          	lui	a5,0xfffff
   10cbc:	ff040713          	addi	a4,s0,-16
   10cc0:	00f707b3          	add	a5,a4,a5
   10cc4:	2bd00713          	li	a4,701
   10cc8:	6ee7a023          	sw	a4,1760(a5) # fffff6e0 <__global_pointer$+0xfffebed0>
   10ccc:	fffff7b7          	lui	a5,0xfffff
   10cd0:	ff040713          	addi	a4,s0,-16
   10cd4:	00f707b3          	add	a5,a4,a5
   10cd8:	32c00713          	li	a4,812
   10cdc:	6ee7a223          	sw	a4,1764(a5) # fffff6e4 <__global_pointer$+0xfffebed4>
   10ce0:	fffff7b7          	lui	a5,0xfffff
   10ce4:	ff040713          	addi	a4,s0,-16
   10ce8:	00f707b3          	add	a5,a4,a5
   10cec:	3d500713          	li	a4,981
   10cf0:	6ee7a423          	sw	a4,1768(a5) # fffff6e8 <__global_pointer$+0xfffebed8>
   10cf4:	fffff7b7          	lui	a5,0xfffff
   10cf8:	ff040713          	addi	a4,s0,-16
   10cfc:	00f707b3          	add	a5,a4,a5
   10d00:	09600713          	li	a4,150
   10d04:	6ee7a623          	sw	a4,1772(a5) # fffff6ec <__global_pointer$+0xfffebedc>
   10d08:	fffff7b7          	lui	a5,0xfffff
   10d0c:	ff040713          	addi	a4,s0,-16
   10d10:	00f707b3          	add	a5,a4,a5
   10d14:	2b800713          	li	a4,696
   10d18:	6ee7a823          	sw	a4,1776(a5) # fffff6f0 <__global_pointer$+0xfffebee0>
   10d1c:	fffff7b7          	lui	a5,0xfffff
   10d20:	ff040713          	addi	a4,s0,-16
   10d24:	00f707b3          	add	a5,a4,a5
   10d28:	23400713          	li	a4,564
   10d2c:	6ee7aa23          	sw	a4,1780(a5) # fffff6f4 <__global_pointer$+0xfffebee4>
   10d30:	fffff7b7          	lui	a5,0xfffff
   10d34:	ff040713          	addi	a4,s0,-16
   10d38:	00f707b3          	add	a5,a4,a5
   10d3c:	11000713          	li	a4,272
   10d40:	6ee7ac23          	sw	a4,1784(a5) # fffff6f8 <__global_pointer$+0xfffebee8>
   10d44:	fffff7b7          	lui	a5,0xfffff
   10d48:	ff040713          	addi	a4,s0,-16
   10d4c:	00f707b3          	add	a5,a4,a5
   10d50:	10200713          	li	a4,258
   10d54:	6ee7ae23          	sw	a4,1788(a5) # fffff6fc <__global_pointer$+0xfffebeec>
   10d58:	fffff7b7          	lui	a5,0xfffff
   10d5c:	ff040713          	addi	a4,s0,-16
   10d60:	00f707b3          	add	a5,a4,a5
   10d64:	28700713          	li	a4,647
   10d68:	70e7a023          	sw	a4,1792(a5) # fffff700 <__global_pointer$+0xfffebef0>
   10d6c:	fffff7b7          	lui	a5,0xfffff
   10d70:	ff040713          	addi	a4,s0,-16
   10d74:	00f707b3          	add	a5,a4,a5
   10d78:	1fd00713          	li	a4,509
   10d7c:	70e7a223          	sw	a4,1796(a5) # fffff704 <__global_pointer$+0xfffebef4>
   10d80:	fffff7b7          	lui	a5,0xfffff
   10d84:	ff040713          	addi	a4,s0,-16
   10d88:	00f707b3          	add	a5,a4,a5
   10d8c:	05800713          	li	a4,88
   10d90:	70e7a423          	sw	a4,1800(a5) # fffff708 <__global_pointer$+0xfffebef8>
   10d94:	fffff7b7          	lui	a5,0xfffff
   10d98:	ff040713          	addi	a4,s0,-16
   10d9c:	00f707b3          	add	a5,a4,a5
   10da0:	2bf00713          	li	a4,703
   10da4:	70e7a623          	sw	a4,1804(a5) # fffff70c <__global_pointer$+0xfffebefc>
   10da8:	fffff7b7          	lui	a5,0xfffff
   10dac:	ff040713          	addi	a4,s0,-16
   10db0:	00f707b3          	add	a5,a4,a5
   10db4:	29d00713          	li	a4,669
   10db8:	70e7a823          	sw	a4,1808(a5) # fffff710 <__global_pointer$+0xfffebf00>
   10dbc:	fffff7b7          	lui	a5,0xfffff
   10dc0:	ff040713          	addi	a4,s0,-16
   10dc4:	00f707b3          	add	a5,a4,a5
   10dc8:	17700713          	li	a4,375
   10dcc:	70e7aa23          	sw	a4,1812(a5) # fffff714 <__global_pointer$+0xfffebf04>
   10dd0:	fffff7b7          	lui	a5,0xfffff
   10dd4:	ff040713          	addi	a4,s0,-16
   10dd8:	00f707b3          	add	a5,a4,a5
   10ddc:	22700713          	li	a4,551
   10de0:	70e7ac23          	sw	a4,1816(a5) # fffff718 <__global_pointer$+0xfffebf08>
   10de4:	fffff7b7          	lui	a5,0xfffff
   10de8:	ff040713          	addi	a4,s0,-16
   10dec:	00f707b3          	add	a5,a4,a5
   10df0:	3a800713          	li	a4,936
   10df4:	70e7ae23          	sw	a4,1820(a5) # fffff71c <__global_pointer$+0xfffebf0c>
   10df8:	fffff7b7          	lui	a5,0xfffff
   10dfc:	ff040713          	addi	a4,s0,-16
   10e00:	00f707b3          	add	a5,a4,a5
   10e04:	25000713          	li	a4,592
   10e08:	72e7a023          	sw	a4,1824(a5) # fffff720 <__global_pointer$+0xfffebf10>
   10e0c:	fffff7b7          	lui	a5,0xfffff
   10e10:	ff040713          	addi	a4,s0,-16
   10e14:	00f707b3          	add	a5,a4,a5
   10e18:	23900713          	li	a4,569
   10e1c:	72e7a223          	sw	a4,1828(a5) # fffff724 <__global_pointer$+0xfffebf14>
   10e20:	fffff7b7          	lui	a5,0xfffff
   10e24:	ff040713          	addi	a4,s0,-16
   10e28:	00f707b3          	add	a5,a4,a5
   10e2c:	3b800713          	li	a4,952
   10e30:	72e7a423          	sw	a4,1832(a5) # fffff728 <__global_pointer$+0xfffebf18>
   10e34:	fffff7b7          	lui	a5,0xfffff
   10e38:	ff040713          	addi	a4,s0,-16
   10e3c:	00f707b3          	add	a5,a4,a5
   10e40:	32000713          	li	a4,800
   10e44:	72e7a623          	sw	a4,1836(a5) # fffff72c <__global_pointer$+0xfffebf1c>
   10e48:	fffff7b7          	lui	a5,0xfffff
   10e4c:	ff040713          	addi	a4,s0,-16
   10e50:	00f707b3          	add	a5,a4,a5
   10e54:	24800713          	li	a4,584
   10e58:	72e7a823          	sw	a4,1840(a5) # fffff730 <__global_pointer$+0xfffebf20>
   10e5c:	fffff7b7          	lui	a5,0xfffff
   10e60:	ff040713          	addi	a4,s0,-16
   10e64:	00f707b3          	add	a5,a4,a5
   10e68:	28300713          	li	a4,643
   10e6c:	72e7aa23          	sw	a4,1844(a5) # fffff734 <__global_pointer$+0xfffebf24>
   10e70:	fffff7b7          	lui	a5,0xfffff
   10e74:	ff040713          	addi	a4,s0,-16
   10e78:	00f707b3          	add	a5,a4,a5
   10e7c:	17000713          	li	a4,368
   10e80:	72e7ac23          	sw	a4,1848(a5) # fffff738 <__global_pointer$+0xfffebf28>
   10e84:	fffff7b7          	lui	a5,0xfffff
   10e88:	ff040713          	addi	a4,s0,-16
   10e8c:	00f707b3          	add	a5,a4,a5
   10e90:	1e900713          	li	a4,489
   10e94:	72e7ae23          	sw	a4,1852(a5) # fffff73c <__global_pointer$+0xfffebf2c>
   10e98:	fffff7b7          	lui	a5,0xfffff
   10e9c:	ff040713          	addi	a4,s0,-16
   10ea0:	00f707b3          	add	a5,a4,a5
   10ea4:	14800713          	li	a4,328
   10ea8:	74e7a023          	sw	a4,1856(a5) # fffff740 <__global_pointer$+0xfffebf30>
   10eac:	fffff7b7          	lui	a5,0xfffff
   10eb0:	ff040713          	addi	a4,s0,-16
   10eb4:	00f707b3          	add	a5,a4,a5
   10eb8:	13900713          	li	a4,313
   10ebc:	74e7a223          	sw	a4,1860(a5) # fffff744 <__global_pointer$+0xfffebf34>
   10ec0:	fffff7b7          	lui	a5,0xfffff
   10ec4:	ff040713          	addi	a4,s0,-16
   10ec8:	00f707b3          	add	a5,a4,a5
   10ecc:	25000713          	li	a4,592
   10ed0:	74e7a423          	sw	a4,1864(a5) # fffff748 <__global_pointer$+0xfffebf38>
   10ed4:	fffff7b7          	lui	a5,0xfffff
   10ed8:	ff040713          	addi	a4,s0,-16
   10edc:	00f707b3          	add	a5,a4,a5
   10ee0:	18400713          	li	a4,388
   10ee4:	74e7a623          	sw	a4,1868(a5) # fffff74c <__global_pointer$+0xfffebf3c>
   10ee8:	fffff7b7          	lui	a5,0xfffff
   10eec:	ff040713          	addi	a4,s0,-16
   10ef0:	00f707b3          	add	a5,a4,a5
   10ef4:	21f00713          	li	a4,543
   10ef8:	74e7a823          	sw	a4,1872(a5) # fffff750 <__global_pointer$+0xfffebf40>
   10efc:	fffff7b7          	lui	a5,0xfffff
   10f00:	ff040713          	addi	a4,s0,-16
   10f04:	00f707b3          	add	a5,a4,a5
   10f08:	28900713          	li	a4,649
   10f0c:	74e7aa23          	sw	a4,1876(a5) # fffff754 <__global_pointer$+0xfffebf44>
   10f10:	fffff7b7          	lui	a5,0xfffff
   10f14:	ff040713          	addi	a4,s0,-16
   10f18:	00f707b3          	add	a5,a4,a5
   10f1c:	3d300713          	li	a4,979
   10f20:	74e7ac23          	sw	a4,1880(a5) # fffff758 <__global_pointer$+0xfffebf48>
   10f24:	fffff7b7          	lui	a5,0xfffff
   10f28:	ff040713          	addi	a4,s0,-16
   10f2c:	00f707b3          	add	a5,a4,a5
   10f30:	3e500713          	li	a4,997
   10f34:	74e7ae23          	sw	a4,1884(a5) # fffff75c <__global_pointer$+0xfffebf4c>
   10f38:	fffff7b7          	lui	a5,0xfffff
   10f3c:	ff040713          	addi	a4,s0,-16
   10f40:	00f707b3          	add	a5,a4,a5
   10f44:	32e00713          	li	a4,814
   10f48:	76e7a023          	sw	a4,1888(a5) # fffff760 <__global_pointer$+0xfffebf50>
   10f4c:	fffff7b7          	lui	a5,0xfffff
   10f50:	ff040713          	addi	a4,s0,-16
   10f54:	00f707b3          	add	a5,a4,a5
   10f58:	04f00713          	li	a4,79
   10f5c:	76e7a223          	sw	a4,1892(a5) # fffff764 <__global_pointer$+0xfffebf54>
   10f60:	fffff7b7          	lui	a5,0xfffff
   10f64:	ff040713          	addi	a4,s0,-16
   10f68:	00f707b3          	add	a5,a4,a5
   10f6c:	0d000713          	li	a4,208
   10f70:	76e7a423          	sw	a4,1896(a5) # fffff768 <__global_pointer$+0xfffebf58>
   10f74:	fffff7b7          	lui	a5,0xfffff
   10f78:	ff040713          	addi	a4,s0,-16
   10f7c:	00f707b3          	add	a5,a4,a5
   10f80:	3e600713          	li	a4,998
   10f84:	76e7a623          	sw	a4,1900(a5) # fffff76c <__global_pointer$+0xfffebf5c>
   10f88:	fffff7b7          	lui	a5,0xfffff
   10f8c:	ff040713          	addi	a4,s0,-16
   10f90:	00f707b3          	add	a5,a4,a5
   10f94:	27500713          	li	a4,629
   10f98:	76e7a823          	sw	a4,1904(a5) # fffff770 <__global_pointer$+0xfffebf60>
   10f9c:	fffff7b7          	lui	a5,0xfffff
   10fa0:	ff040713          	addi	a4,s0,-16
   10fa4:	00f707b3          	add	a5,a4,a5
   10fa8:	34f00713          	li	a4,847
   10fac:	76e7aa23          	sw	a4,1908(a5) # fffff774 <__global_pointer$+0xfffebf64>
   10fb0:	fffff7b7          	lui	a5,0xfffff
   10fb4:	ff040713          	addi	a4,s0,-16
   10fb8:	00f707b3          	add	a5,a4,a5
   10fbc:	2c000713          	li	a4,704
   10fc0:	76e7ac23          	sw	a4,1912(a5) # fffff778 <__global_pointer$+0xfffebf68>
   10fc4:	fffff7b7          	lui	a5,0xfffff
   10fc8:	ff040713          	addi	a4,s0,-16
   10fcc:	00f707b3          	add	a5,a4,a5
   10fd0:	3e500713          	li	a4,997
   10fd4:	76e7ae23          	sw	a4,1916(a5) # fffff77c <__global_pointer$+0xfffebf6c>
   10fd8:	fffff7b7          	lui	a5,0xfffff
   10fdc:	ff040713          	addi	a4,s0,-16
   10fe0:	00f707b3          	add	a5,a4,a5
   10fe4:	0fd00713          	li	a4,253
   10fe8:	78e7a023          	sw	a4,1920(a5) # fffff780 <__global_pointer$+0xfffebf70>
   10fec:	fffff7b7          	lui	a5,0xfffff
   10ff0:	ff040713          	addi	a4,s0,-16
   10ff4:	00f707b3          	add	a5,a4,a5
   10ff8:	2cb00713          	li	a4,715
   10ffc:	78e7a223          	sw	a4,1924(a5) # fffff784 <__global_pointer$+0xfffebf74>
   11000:	fffff7b7          	lui	a5,0xfffff
   11004:	ff040713          	addi	a4,s0,-16
   11008:	00f707b3          	add	a5,a4,a5
   1100c:	1ae00713          	li	a4,430
   11010:	78e7a423          	sw	a4,1928(a5) # fffff788 <__global_pointer$+0xfffebf78>
   11014:	fffff7b7          	lui	a5,0xfffff
   11018:	ff040713          	addi	a4,s0,-16
   1101c:	00f707b3          	add	a5,a4,a5
   11020:	19f00713          	li	a4,415
   11024:	78e7a623          	sw	a4,1932(a5) # fffff78c <__global_pointer$+0xfffebf7c>
   11028:	fffff7b7          	lui	a5,0xfffff
   1102c:	ff040713          	addi	a4,s0,-16
   11030:	00f707b3          	add	a5,a4,a5
   11034:	21a00713          	li	a4,538
   11038:	78e7a823          	sw	a4,1936(a5) # fffff790 <__global_pointer$+0xfffebf80>
   1103c:	fffff7b7          	lui	a5,0xfffff
   11040:	ff040713          	addi	a4,s0,-16
   11044:	00f707b3          	add	a5,a4,a5
   11048:	2bc00713          	li	a4,700
   1104c:	78e7aa23          	sw	a4,1940(a5) # fffff794 <__global_pointer$+0xfffebf84>
   11050:	fffff7b7          	lui	a5,0xfffff
   11054:	ff040713          	addi	a4,s0,-16
   11058:	00f707b3          	add	a5,a4,a5
   1105c:	00400713          	li	a4,4
   11060:	78e7ac23          	sw	a4,1944(a5) # fffff798 <__global_pointer$+0xfffebf88>
   11064:	fffff7b7          	lui	a5,0xfffff
   11068:	ff040713          	addi	a4,s0,-16
   1106c:	00f707b3          	add	a5,a4,a5
   11070:	1ee00713          	li	a4,494
   11074:	78e7ae23          	sw	a4,1948(a5) # fffff79c <__global_pointer$+0xfffebf8c>
   11078:	fffff7b7          	lui	a5,0xfffff
   1107c:	ff040713          	addi	a4,s0,-16
   11080:	00f707b3          	add	a5,a4,a5
   11084:	06400713          	li	a4,100
   11088:	7ae7a023          	sw	a4,1952(a5) # fffff7a0 <__global_pointer$+0xfffebf90>
   1108c:	fffff7b7          	lui	a5,0xfffff
   11090:	ff040713          	addi	a4,s0,-16
   11094:	00f707b3          	add	a5,a4,a5
   11098:	36000713          	li	a4,864
   1109c:	7ae7a223          	sw	a4,1956(a5) # fffff7a4 <__global_pointer$+0xfffebf94>
   110a0:	fffff7b7          	lui	a5,0xfffff
   110a4:	ff040713          	addi	a4,s0,-16
   110a8:	00f707b3          	add	a5,a4,a5
   110ac:	2b500713          	li	a4,693
   110b0:	7ae7a423          	sw	a4,1960(a5) # fffff7a8 <__global_pointer$+0xfffebf98>
   110b4:	fffff7b7          	lui	a5,0xfffff
   110b8:	ff040713          	addi	a4,s0,-16
   110bc:	00f707b3          	add	a5,a4,a5
   110c0:	1a000713          	li	a4,416
   110c4:	7ae7a623          	sw	a4,1964(a5) # fffff7ac <__global_pointer$+0xfffebf9c>
   110c8:	fffff7b7          	lui	a5,0xfffff
   110cc:	ff040713          	addi	a4,s0,-16
   110d0:	00f707b3          	add	a5,a4,a5
   110d4:	12800713          	li	a4,296
   110d8:	7ae7a823          	sw	a4,1968(a5) # fffff7b0 <__global_pointer$+0xfffebfa0>
   110dc:	fffff7b7          	lui	a5,0xfffff
   110e0:	ff040713          	addi	a4,s0,-16
   110e4:	00f707b3          	add	a5,a4,a5
   110e8:	11d00713          	li	a4,285
   110ec:	7ae7aa23          	sw	a4,1972(a5) # fffff7b4 <__global_pointer$+0xfffebfa4>
   110f0:	fffff7b7          	lui	a5,0xfffff
   110f4:	ff040713          	addi	a4,s0,-16
   110f8:	00f707b3          	add	a5,a4,a5
   110fc:	26c00713          	li	a4,620
   11100:	7ae7ac23          	sw	a4,1976(a5) # fffff7b8 <__global_pointer$+0xfffebfa8>
   11104:	fffff7b7          	lui	a5,0xfffff
   11108:	ff040713          	addi	a4,s0,-16
   1110c:	00f707b3          	add	a5,a4,a5
   11110:	04e00713          	li	a4,78
   11114:	7ae7ae23          	sw	a4,1980(a5) # fffff7bc <__global_pointer$+0xfffebfac>
   11118:	fffff7b7          	lui	a5,0xfffff
   1111c:	ff040713          	addi	a4,s0,-16
   11120:	00f707b3          	add	a5,a4,a5
   11124:	15f00713          	li	a4,351
   11128:	7ce7a023          	sw	a4,1984(a5) # fffff7c0 <__global_pointer$+0xfffebfb0>
   1112c:	fffff7b7          	lui	a5,0xfffff
   11130:	ff040713          	addi	a4,s0,-16
   11134:	00f707b3          	add	a5,a4,a5
   11138:	21c00713          	li	a4,540
   1113c:	7ce7a223          	sw	a4,1988(a5) # fffff7c4 <__global_pointer$+0xfffebfb4>
   11140:	fffff7b7          	lui	a5,0xfffff
   11144:	ff040713          	addi	a4,s0,-16
   11148:	00f707b3          	add	a5,a4,a5
   1114c:	28600713          	li	a4,646
   11150:	7ce7a423          	sw	a4,1992(a5) # fffff7c8 <__global_pointer$+0xfffebfb8>
   11154:	fffff7b7          	lui	a5,0xfffff
   11158:	ff040713          	addi	a4,s0,-16
   1115c:	00f707b3          	add	a5,a4,a5
   11160:	0a900713          	li	a4,169
   11164:	7ce7a623          	sw	a4,1996(a5) # fffff7cc <__global_pointer$+0xfffebfbc>
   11168:	fffff7b7          	lui	a5,0xfffff
   1116c:	ff040713          	addi	a4,s0,-16
   11170:	00f707b3          	add	a5,a4,a5
   11174:	20f00713          	li	a4,527
   11178:	7ce7a823          	sw	a4,2000(a5) # fffff7d0 <__global_pointer$+0xfffebfc0>
   1117c:	fffff7b7          	lui	a5,0xfffff
   11180:	ff040713          	addi	a4,s0,-16
   11184:	00f707b3          	add	a5,a4,a5
   11188:	12100713          	li	a4,289
   1118c:	7ce7aa23          	sw	a4,2004(a5) # fffff7d4 <__global_pointer$+0xfffebfc4>
   11190:	fffff7b7          	lui	a5,0xfffff
   11194:	ff040713          	addi	a4,s0,-16
   11198:	00f707b3          	add	a5,a4,a5
   1119c:	31c00713          	li	a4,796
   111a0:	7ce7ac23          	sw	a4,2008(a5) # fffff7d8 <__global_pointer$+0xfffebfc8>
   111a4:	fffff7b7          	lui	a5,0xfffff
   111a8:	ff040713          	addi	a4,s0,-16
   111ac:	00f707b3          	add	a5,a4,a5
   111b0:	32100713          	li	a4,801
   111b4:	7ce7ae23          	sw	a4,2012(a5) # fffff7dc <__global_pointer$+0xfffebfcc>
   111b8:	fffff7b7          	lui	a5,0xfffff
   111bc:	ff040713          	addi	a4,s0,-16
   111c0:	00f707b3          	add	a5,a4,a5
   111c4:	2d000713          	li	a4,720
   111c8:	7ee7a023          	sw	a4,2016(a5) # fffff7e0 <__global_pointer$+0xfffebfd0>
   111cc:	fffff7b7          	lui	a5,0xfffff
   111d0:	ff040713          	addi	a4,s0,-16
   111d4:	00f707b3          	add	a5,a4,a5
   111d8:	2f600713          	li	a4,758
   111dc:	7ee7a223          	sw	a4,2020(a5) # fffff7e4 <__global_pointer$+0xfffebfd4>
   111e0:	fffff7b7          	lui	a5,0xfffff
   111e4:	ff040713          	addi	a4,s0,-16
   111e8:	00f707b3          	add	a5,a4,a5
   111ec:	2e900713          	li	a4,745
   111f0:	7ee7a423          	sw	a4,2024(a5) # fffff7e8 <__global_pointer$+0xfffebfd8>
   111f4:	fffff7b7          	lui	a5,0xfffff
   111f8:	ff040713          	addi	a4,s0,-16
   111fc:	00f707b3          	add	a5,a4,a5
   11200:	05c00713          	li	a4,92
   11204:	7ee7a623          	sw	a4,2028(a5) # fffff7ec <__global_pointer$+0xfffebfdc>
   11208:	fffff7b7          	lui	a5,0xfffff
   1120c:	ff040713          	addi	a4,s0,-16
   11210:	00f707b3          	add	a5,a4,a5
   11214:	3dd00713          	li	a4,989
   11218:	7ee7a823          	sw	a4,2032(a5) # fffff7f0 <__global_pointer$+0xfffebfe0>
   1121c:	fffff7b7          	lui	a5,0xfffff
   11220:	ff040713          	addi	a4,s0,-16
   11224:	00f707b3          	add	a5,a4,a5
   11228:	10f00713          	li	a4,271
   1122c:	7ee7aa23          	sw	a4,2036(a5) # fffff7f4 <__global_pointer$+0xfffebfe4>
   11230:	fffff7b7          	lui	a5,0xfffff
   11234:	ff040713          	addi	a4,s0,-16
   11238:	00f707b3          	add	a5,a4,a5
   1123c:	35500713          	li	a4,853
   11240:	7ee7ac23          	sw	a4,2040(a5) # fffff7f8 <__global_pointer$+0xfffebfe8>
   11244:	fffff7b7          	lui	a5,0xfffff
   11248:	ff040713          	addi	a4,s0,-16
   1124c:	00f707b3          	add	a5,a4,a5
   11250:	31400713          	li	a4,788
   11254:	7ee7ae23          	sw	a4,2044(a5) # fffff7fc <__global_pointer$+0xfffebfec>
   11258:	fffff7b7          	lui	a5,0xfffff
   1125c:	ff040713          	addi	a4,s0,-16
   11260:	00f70733          	add	a4,a4,a5
   11264:	000017b7          	lui	a5,0x1
   11268:	00f707b3          	add	a5,a4,a5
   1126c:	21300713          	li	a4,531
   11270:	80e7a023          	sw	a4,-2048(a5) # 800 <register_fini-0xf874>
   11274:	fffff7b7          	lui	a5,0xfffff
   11278:	ff040713          	addi	a4,s0,-16
   1127c:	00f70733          	add	a4,a4,a5
   11280:	000017b7          	lui	a5,0x1
   11284:	00f707b3          	add	a5,a4,a5
   11288:	0de00713          	li	a4,222
   1128c:	80e7a223          	sw	a4,-2044(a5) # 804 <register_fini-0xf870>
   11290:	fffff7b7          	lui	a5,0xfffff
   11294:	ff040713          	addi	a4,s0,-16
   11298:	00f70733          	add	a4,a4,a5
   1129c:	000017b7          	lui	a5,0x1
   112a0:	00f707b3          	add	a5,a4,a5
   112a4:	1cd00713          	li	a4,461
   112a8:	80e7a423          	sw	a4,-2040(a5) # 808 <register_fini-0xf86c>
   112ac:	fffff7b7          	lui	a5,0xfffff
   112b0:	ff040713          	addi	a4,s0,-16
   112b4:	00f70733          	add	a4,a4,a5
   112b8:	000017b7          	lui	a5,0x1
   112bc:	00f707b3          	add	a5,a4,a5
   112c0:	0f100713          	li	a4,241
   112c4:	80e7a623          	sw	a4,-2036(a5) # 80c <register_fini-0xf868>
   112c8:	fffff7b7          	lui	a5,0xfffff
   112cc:	ff040713          	addi	a4,s0,-16
   112d0:	00f70733          	add	a4,a4,a5
   112d4:	000017b7          	lui	a5,0x1
   112d8:	00f707b3          	add	a5,a4,a5
   112dc:	16600713          	li	a4,358
   112e0:	80e7a823          	sw	a4,-2032(a5) # 810 <register_fini-0xf864>
   112e4:	fffff7b7          	lui	a5,0xfffff
   112e8:	ff040713          	addi	a4,s0,-16
   112ec:	00f70733          	add	a4,a4,a5
   112f0:	000017b7          	lui	a5,0x1
   112f4:	00f707b3          	add	a5,a4,a5
   112f8:	14c00713          	li	a4,332
   112fc:	80e7aa23          	sw	a4,-2028(a5) # 814 <register_fini-0xf860>
   11300:	fffff7b7          	lui	a5,0xfffff
   11304:	ff040713          	addi	a4,s0,-16
   11308:	00f70733          	add	a4,a4,a5
   1130c:	000017b7          	lui	a5,0x1
   11310:	00f707b3          	add	a5,a4,a5
   11314:	2ac00713          	li	a4,684
   11318:	80e7ac23          	sw	a4,-2024(a5) # 818 <register_fini-0xf85c>
   1131c:	fffff7b7          	lui	a5,0xfffff
   11320:	ff040713          	addi	a4,s0,-16
   11324:	00f70733          	add	a4,a4,a5
   11328:	000017b7          	lui	a5,0x1
   1132c:	00f707b3          	add	a5,a4,a5
   11330:	2e400713          	li	a4,740
   11334:	80e7ae23          	sw	a4,-2020(a5) # 81c <register_fini-0xf858>
   11338:	fffff7b7          	lui	a5,0xfffff
   1133c:	ff040713          	addi	a4,s0,-16
   11340:	00f70733          	add	a4,a4,a5
   11344:	000017b7          	lui	a5,0x1
   11348:	00f707b3          	add	a5,a4,a5
   1134c:	1be00713          	li	a4,446
   11350:	82e7a023          	sw	a4,-2016(a5) # 820 <register_fini-0xf854>
   11354:	fffff7b7          	lui	a5,0xfffff
   11358:	ff040713          	addi	a4,s0,-16
   1135c:	00f70733          	add	a4,a4,a5
   11360:	000017b7          	lui	a5,0x1
   11364:	00f707b3          	add	a5,a4,a5
   11368:	13700713          	li	a4,311
   1136c:	82e7a223          	sw	a4,-2012(a5) # 824 <register_fini-0xf850>
   11370:	fffff7b7          	lui	a5,0xfffff
   11374:	ff040713          	addi	a4,s0,-16
   11378:	00f70733          	add	a4,a4,a5
   1137c:	000017b7          	lui	a5,0x1
   11380:	00f707b3          	add	a5,a4,a5
   11384:	2e700713          	li	a4,743
   11388:	82e7a423          	sw	a4,-2008(a5) # 828 <register_fini-0xf84c>
   1138c:	fffff7b7          	lui	a5,0xfffff
   11390:	ff040713          	addi	a4,s0,-16
   11394:	00f70733          	add	a4,a4,a5
   11398:	000017b7          	lui	a5,0x1
   1139c:	00f707b3          	add	a5,a4,a5
   113a0:	22d00713          	li	a4,557
   113a4:	82e7a623          	sw	a4,-2004(a5) # 82c <register_fini-0xf848>
   113a8:	fffff7b7          	lui	a5,0xfffff
   113ac:	ff040713          	addi	a4,s0,-16
   113b0:	00f70733          	add	a4,a4,a5
   113b4:	000017b7          	lui	a5,0x1
   113b8:	00f707b3          	add	a5,a4,a5
   113bc:	1df00713          	li	a4,479
   113c0:	82e7a823          	sw	a4,-2000(a5) # 830 <register_fini-0xf844>
   113c4:	fffff7b7          	lui	a5,0xfffff
   113c8:	ff040713          	addi	a4,s0,-16
   113cc:	00f70733          	add	a4,a4,a5
   113d0:	000017b7          	lui	a5,0x1
   113d4:	00f707b3          	add	a5,a4,a5
   113d8:	22d00713          	li	a4,557
   113dc:	82e7aa23          	sw	a4,-1996(a5) # 834 <register_fini-0xf840>
   113e0:	fffff7b7          	lui	a5,0xfffff
   113e4:	ff040713          	addi	a4,s0,-16
   113e8:	00f70733          	add	a4,a4,a5
   113ec:	000017b7          	lui	a5,0x1
   113f0:	00f707b3          	add	a5,a4,a5
   113f4:	39d00713          	li	a4,925
   113f8:	82e7ac23          	sw	a4,-1992(a5) # 838 <register_fini-0xf83c>
   113fc:	fffff7b7          	lui	a5,0xfffff
   11400:	ff040713          	addi	a4,s0,-16
   11404:	00f70733          	add	a4,a4,a5
   11408:	000017b7          	lui	a5,0x1
   1140c:	00f707b3          	add	a5,a4,a5
   11410:	31c00713          	li	a4,796
   11414:	82e7ae23          	sw	a4,-1988(a5) # 83c <register_fini-0xf838>
   11418:	fffff7b7          	lui	a5,0xfffff
   1141c:	ff040713          	addi	a4,s0,-16
   11420:	00f70733          	add	a4,a4,a5
   11424:	000017b7          	lui	a5,0x1
   11428:	00f707b3          	add	a5,a4,a5
   1142c:	16500713          	li	a4,357
   11430:	84e7a023          	sw	a4,-1984(a5) # 840 <register_fini-0xf834>
   11434:	fffff7b7          	lui	a5,0xfffff
   11438:	ff040713          	addi	a4,s0,-16
   1143c:	00f70733          	add	a4,a4,a5
   11440:	000017b7          	lui	a5,0x1
   11444:	00f707b3          	add	a5,a4,a5
   11448:	37b00713          	li	a4,891
   1144c:	84e7a223          	sw	a4,-1980(a5) # 844 <register_fini-0xf830>
   11450:	fffff7b7          	lui	a5,0xfffff
   11454:	ff040713          	addi	a4,s0,-16
   11458:	00f70733          	add	a4,a4,a5
   1145c:	000017b7          	lui	a5,0x1
   11460:	00f707b3          	add	a5,a4,a5
   11464:	29a00713          	li	a4,666
   11468:	84e7a423          	sw	a4,-1976(a5) # 848 <register_fini-0xf82c>
   1146c:	fffff7b7          	lui	a5,0xfffff
   11470:	ff040713          	addi	a4,s0,-16
   11474:	00f70733          	add	a4,a4,a5
   11478:	000017b7          	lui	a5,0x1
   1147c:	00f707b3          	add	a5,a4,a5
   11480:	20200713          	li	a4,514
   11484:	84e7a623          	sw	a4,-1972(a5) # 84c <register_fini-0xf828>
   11488:	fffff7b7          	lui	a5,0xfffff
   1148c:	ff040713          	addi	a4,s0,-16
   11490:	00f70733          	add	a4,a4,a5
   11494:	000017b7          	lui	a5,0x1
   11498:	00f707b3          	add	a5,a4,a5
   1149c:	22d00713          	li	a4,557
   114a0:	84e7a823          	sw	a4,-1968(a5) # 850 <register_fini-0xf824>
   114a4:	fffff7b7          	lui	a5,0xfffff
   114a8:	ff040713          	addi	a4,s0,-16
   114ac:	00f70733          	add	a4,a4,a5
   114b0:	000017b7          	lui	a5,0x1
   114b4:	00f707b3          	add	a5,a4,a5
   114b8:	36600713          	li	a4,870
   114bc:	84e7aa23          	sw	a4,-1964(a5) # 854 <register_fini-0xf820>
   114c0:	fffff7b7          	lui	a5,0xfffff
   114c4:	ff040713          	addi	a4,s0,-16
   114c8:	00f70733          	add	a4,a4,a5
   114cc:	000017b7          	lui	a5,0x1
   114d0:	00f707b3          	add	a5,a4,a5
   114d4:	35500713          	li	a4,853
   114d8:	84e7ac23          	sw	a4,-1960(a5) # 858 <register_fini-0xf81c>
   114dc:	fffff7b7          	lui	a5,0xfffff
   114e0:	ff040713          	addi	a4,s0,-16
   114e4:	00f70733          	add	a4,a4,a5
   114e8:	000017b7          	lui	a5,0x1
   114ec:	00f707b3          	add	a5,a4,a5
   114f0:	1b800713          	li	a4,440
   114f4:	84e7ae23          	sw	a4,-1956(a5) # 85c <register_fini-0xf818>
   114f8:	fffff7b7          	lui	a5,0xfffff
   114fc:	ff040713          	addi	a4,s0,-16
   11500:	00f70733          	add	a4,a4,a5
   11504:	000017b7          	lui	a5,0x1
   11508:	00f707b3          	add	a5,a4,a5
   1150c:	03d00713          	li	a4,61
   11510:	86e7a023          	sw	a4,-1952(a5) # 860 <register_fini-0xf814>
   11514:	fffff7b7          	lui	a5,0xfffff
   11518:	ff040713          	addi	a4,s0,-16
   1151c:	00f70733          	add	a4,a4,a5
   11520:	000017b7          	lui	a5,0x1
   11524:	00f707b3          	add	a5,a4,a5
   11528:	2a600713          	li	a4,678
   1152c:	86e7a223          	sw	a4,-1948(a5) # 864 <register_fini-0xf810>
   11530:	fffff7b7          	lui	a5,0xfffff
   11534:	ff040713          	addi	a4,s0,-16
   11538:	00f70733          	add	a4,a4,a5
   1153c:	000017b7          	lui	a5,0x1
   11540:	00f707b3          	add	a5,a4,a5
   11544:	18c00713          	li	a4,396
   11548:	86e7a423          	sw	a4,-1944(a5) # 868 <register_fini-0xf80c>
   1154c:	fffff7b7          	lui	a5,0xfffff
   11550:	ff040713          	addi	a4,s0,-16
   11554:	00f70733          	add	a4,a4,a5
   11558:	000017b7          	lui	a5,0x1
   1155c:	00f707b3          	add	a5,a4,a5
   11560:	00900713          	li	a4,9
   11564:	86e7a623          	sw	a4,-1940(a5) # 86c <register_fini-0xf808>
   11568:	fffff7b7          	lui	a5,0xfffff
   1156c:	ff040713          	addi	a4,s0,-16
   11570:	00f70733          	add	a4,a4,a5
   11574:	000017b7          	lui	a5,0x1
   11578:	00f707b3          	add	a5,a4,a5
   1157c:	01100713          	li	a4,17
   11580:	86e7a823          	sw	a4,-1936(a5) # 870 <register_fini-0xf804>
   11584:	fffff7b7          	lui	a5,0xfffff
   11588:	ff040713          	addi	a4,s0,-16
   1158c:	00f70733          	add	a4,a4,a5
   11590:	000017b7          	lui	a5,0x1
   11594:	00f707b3          	add	a5,a4,a5
   11598:	0aa00713          	li	a4,170
   1159c:	86e7aa23          	sw	a4,-1932(a5) # 874 <register_fini-0xf800>
   115a0:	fffff7b7          	lui	a5,0xfffff
   115a4:	ff040713          	addi	a4,s0,-16
   115a8:	00f70733          	add	a4,a4,a5
   115ac:	000017b7          	lui	a5,0x1
   115b0:	00f707b3          	add	a5,a4,a5
   115b4:	12300713          	li	a4,291
   115b8:	86e7ac23          	sw	a4,-1928(a5) # 878 <register_fini-0xf7fc>
   115bc:	fffff7b7          	lui	a5,0xfffff
   115c0:	ff040713          	addi	a4,s0,-16
   115c4:	00f70733          	add	a4,a4,a5
   115c8:	000017b7          	lui	a5,0x1
   115cc:	00f707b3          	add	a5,a4,a5
   115d0:	17c00713          	li	a4,380
   115d4:	86e7ae23          	sw	a4,-1924(a5) # 87c <register_fini-0xf7f8>
   115d8:	fffff7b7          	lui	a5,0xfffff
   115dc:	ff040713          	addi	a4,s0,-16
   115e0:	00f70733          	add	a4,a4,a5
   115e4:	000017b7          	lui	a5,0x1
   115e8:	00f707b3          	add	a5,a4,a5
   115ec:	21800713          	li	a4,536
   115f0:	88e7a023          	sw	a4,-1920(a5) # 880 <register_fini-0xf7f4>
   115f4:	fffff7b7          	lui	a5,0xfffff
   115f8:	ff040713          	addi	a4,s0,-16
   115fc:	00f70733          	add	a4,a4,a5
   11600:	000017b7          	lui	a5,0x1
   11604:	00f707b3          	add	a5,a4,a5
   11608:	0b900713          	li	a4,185
   1160c:	88e7a223          	sw	a4,-1916(a5) # 884 <register_fini-0xf7f0>
   11610:	fffff7b7          	lui	a5,0xfffff
   11614:	ff040713          	addi	a4,s0,-16
   11618:	00f70733          	add	a4,a4,a5
   1161c:	000017b7          	lui	a5,0x1
   11620:	00f707b3          	add	a5,a4,a5
   11624:	39500713          	li	a4,917
   11628:	88e7a423          	sw	a4,-1912(a5) # 888 <register_fini-0xf7ec>
   1162c:	fffff7b7          	lui	a5,0xfffff
   11630:	ff040713          	addi	a4,s0,-16
   11634:	00f70733          	add	a4,a4,a5
   11638:	000017b7          	lui	a5,0x1
   1163c:	00f707b3          	add	a5,a4,a5
   11640:	21b00713          	li	a4,539
   11644:	88e7a623          	sw	a4,-1908(a5) # 88c <register_fini-0xf7e8>
   11648:	fffff7b7          	lui	a5,0xfffff
   1164c:	ff040713          	addi	a4,s0,-16
   11650:	00f70733          	add	a4,a4,a5
   11654:	000017b7          	lui	a5,0x1
   11658:	00f707b3          	add	a5,a4,a5
   1165c:	3d700713          	li	a4,983
   11660:	88e7a823          	sw	a4,-1904(a5) # 890 <register_fini-0xf7e4>
   11664:	fffff7b7          	lui	a5,0xfffff
   11668:	ff040713          	addi	a4,s0,-16
   1166c:	00f70733          	add	a4,a4,a5
   11670:	000017b7          	lui	a5,0x1
   11674:	00f707b3          	add	a5,a4,a5
   11678:	37700713          	li	a4,887
   1167c:	88e7aa23          	sw	a4,-1900(a5) # 894 <register_fini-0xf7e0>
   11680:	fffff7b7          	lui	a5,0xfffff
   11684:	ff040713          	addi	a4,s0,-16
   11688:	00f70733          	add	a4,a4,a5
   1168c:	000017b7          	lui	a5,0x1
   11690:	00f707b3          	add	a5,a4,a5
   11694:	03600713          	li	a4,54
   11698:	88e7ac23          	sw	a4,-1896(a5) # 898 <register_fini-0xf7dc>
   1169c:	fffff7b7          	lui	a5,0xfffff
   116a0:	ff040713          	addi	a4,s0,-16
   116a4:	00f70733          	add	a4,a4,a5
   116a8:	000017b7          	lui	a5,0x1
   116ac:	00f707b3          	add	a5,a4,a5
   116b0:	26400713          	li	a4,612
   116b4:	88e7ae23          	sw	a4,-1892(a5) # 89c <register_fini-0xf7d8>
   116b8:	fffff7b7          	lui	a5,0xfffff
   116bc:	ff040713          	addi	a4,s0,-16
   116c0:	00f70733          	add	a4,a4,a5
   116c4:	000017b7          	lui	a5,0x1
   116c8:	00f707b3          	add	a5,a4,a5
   116cc:	3b700713          	li	a4,951
   116d0:	8ae7a023          	sw	a4,-1888(a5) # 8a0 <register_fini-0xf7d4>
   116d4:	fffff7b7          	lui	a5,0xfffff
   116d8:	ff040713          	addi	a4,s0,-16
   116dc:	00f70733          	add	a4,a4,a5
   116e0:	000017b7          	lui	a5,0x1
   116e4:	00f707b3          	add	a5,a4,a5
   116e8:	1df00713          	li	a4,479
   116ec:	8ae7a223          	sw	a4,-1884(a5) # 8a4 <register_fini-0xf7d0>
   116f0:	fffff7b7          	lui	a5,0xfffff
   116f4:	ff040713          	addi	a4,s0,-16
   116f8:	00f70733          	add	a4,a4,a5
   116fc:	000017b7          	lui	a5,0x1
   11700:	00f707b3          	add	a5,a4,a5
   11704:	09700713          	li	a4,151
   11708:	8ae7a423          	sw	a4,-1880(a5) # 8a8 <register_fini-0xf7cc>
   1170c:	fffff7b7          	lui	a5,0xfffff
   11710:	ff040713          	addi	a4,s0,-16
   11714:	00f70733          	add	a4,a4,a5
   11718:	000017b7          	lui	a5,0x1
   1171c:	00f707b3          	add	a5,a4,a5
   11720:	00700713          	li	a4,7
   11724:	8ae7a623          	sw	a4,-1876(a5) # 8ac <register_fini-0xf7c8>
   11728:	fffff7b7          	lui	a5,0xfffff
   1172c:	ff040713          	addi	a4,s0,-16
   11730:	00f70733          	add	a4,a4,a5
   11734:	000017b7          	lui	a5,0x1
   11738:	00f707b3          	add	a5,a4,a5
   1173c:	28100713          	li	a4,641
   11740:	8ae7a823          	sw	a4,-1872(a5) # 8b0 <register_fini-0xf7c4>
   11744:	fffff7b7          	lui	a5,0xfffff
   11748:	ff040713          	addi	a4,s0,-16
   1174c:	00f70733          	add	a4,a4,a5
   11750:	000017b7          	lui	a5,0x1
   11754:	00f707b3          	add	a5,a4,a5
   11758:	14f00713          	li	a4,335
   1175c:	8ae7aa23          	sw	a4,-1868(a5) # 8b4 <register_fini-0xf7c0>
   11760:	fffff7b7          	lui	a5,0xfffff
   11764:	ff040713          	addi	a4,s0,-16
   11768:	00f70733          	add	a4,a4,a5
   1176c:	000017b7          	lui	a5,0x1
   11770:	00f707b3          	add	a5,a4,a5
   11774:	2da00713          	li	a4,730
   11778:	8ae7ac23          	sw	a4,-1864(a5) # 8b8 <register_fini-0xf7bc>
   1177c:	fffff7b7          	lui	a5,0xfffff
   11780:	ff040713          	addi	a4,s0,-16
   11784:	00f70733          	add	a4,a4,a5
   11788:	000017b7          	lui	a5,0x1
   1178c:	00f707b3          	add	a5,a4,a5
   11790:	05f00713          	li	a4,95
   11794:	8ae7ae23          	sw	a4,-1860(a5) # 8bc <register_fini-0xf7b8>
   11798:	fffff7b7          	lui	a5,0xfffff
   1179c:	ff040713          	addi	a4,s0,-16
   117a0:	00f70733          	add	a4,a4,a5
   117a4:	000017b7          	lui	a5,0x1
   117a8:	00f707b3          	add	a5,a4,a5
   117ac:	2d800713          	li	a4,728
   117b0:	8ce7a023          	sw	a4,-1856(a5) # 8c0 <register_fini-0xf7b4>
   117b4:	fffff7b7          	lui	a5,0xfffff
   117b8:	ff040713          	addi	a4,s0,-16
   117bc:	00f70733          	add	a4,a4,a5
   117c0:	000017b7          	lui	a5,0x1
   117c4:	00f707b3          	add	a5,a4,a5
   117c8:	11800713          	li	a4,280
   117cc:	8ce7a223          	sw	a4,-1852(a5) # 8c4 <register_fini-0xf7b0>
   117d0:	fffff7b7          	lui	a5,0xfffff
   117d4:	ff040713          	addi	a4,s0,-16
   117d8:	00f70733          	add	a4,a4,a5
   117dc:	000017b7          	lui	a5,0x1
   117e0:	00f707b3          	add	a5,a4,a5
   117e4:	18b00713          	li	a4,395
   117e8:	8ce7a423          	sw	a4,-1848(a5) # 8c8 <register_fini-0xf7ac>
   117ec:	fffff7b7          	lui	a5,0xfffff
   117f0:	ff040713          	addi	a4,s0,-16
   117f4:	00f70733          	add	a4,a4,a5
   117f8:	000017b7          	lui	a5,0x1
   117fc:	00f707b3          	add	a5,a4,a5
   11800:	2b000713          	li	a4,688
   11804:	8ce7a623          	sw	a4,-1844(a5) # 8cc <register_fini-0xf7a8>
   11808:	fffff7b7          	lui	a5,0xfffff
   1180c:	ff040713          	addi	a4,s0,-16
   11810:	00f70733          	add	a4,a4,a5
   11814:	000017b7          	lui	a5,0x1
   11818:	00f707b3          	add	a5,a4,a5
   1181c:	38f00713          	li	a4,911
   11820:	8ce7a823          	sw	a4,-1840(a5) # 8d0 <register_fini-0xf7a4>
   11824:	fffff7b7          	lui	a5,0xfffff
   11828:	ff040713          	addi	a4,s0,-16
   1182c:	00f70733          	add	a4,a4,a5
   11830:	000017b7          	lui	a5,0x1
   11834:	00f707b3          	add	a5,a4,a5
   11838:	1dc00713          	li	a4,476
   1183c:	8ce7aa23          	sw	a4,-1836(a5) # 8d4 <register_fini-0xf7a0>
   11840:	fffff7b7          	lui	a5,0xfffff
   11844:	ff040713          	addi	a4,s0,-16
   11848:	00f70733          	add	a4,a4,a5
   1184c:	000017b7          	lui	a5,0x1
   11850:	00f707b3          	add	a5,a4,a5
   11854:	32f00713          	li	a4,815
   11858:	8ce7ac23          	sw	a4,-1832(a5) # 8d8 <register_fini-0xf79c>
   1185c:	fffff7b7          	lui	a5,0xfffff
   11860:	ff040713          	addi	a4,s0,-16
   11864:	00f70733          	add	a4,a4,a5
   11868:	000017b7          	lui	a5,0x1
   1186c:	00f707b3          	add	a5,a4,a5
   11870:	2d900713          	li	a4,729
   11874:	8ce7ae23          	sw	a4,-1828(a5) # 8dc <register_fini-0xf798>
   11878:	fffff7b7          	lui	a5,0xfffff
   1187c:	ff040713          	addi	a4,s0,-16
   11880:	00f70733          	add	a4,a4,a5
   11884:	000017b7          	lui	a5,0x1
   11888:	00f707b3          	add	a5,a4,a5
   1188c:	10900713          	li	a4,265
   11890:	8ee7a023          	sw	a4,-1824(a5) # 8e0 <register_fini-0xf794>
   11894:	fffff7b7          	lui	a5,0xfffff
   11898:	ff040713          	addi	a4,s0,-16
   1189c:	00f70733          	add	a4,a4,a5
   118a0:	000017b7          	lui	a5,0x1
   118a4:	00f707b3          	add	a5,a4,a5
   118a8:	07f00713          	li	a4,127
   118ac:	8ee7a223          	sw	a4,-1820(a5) # 8e4 <register_fini-0xf790>
   118b0:	fffff7b7          	lui	a5,0xfffff
   118b4:	ff040713          	addi	a4,s0,-16
   118b8:	00f70733          	add	a4,a4,a5
   118bc:	000017b7          	lui	a5,0x1
   118c0:	00f707b3          	add	a5,a4,a5
   118c4:	0ec00713          	li	a4,236
   118c8:	8ee7a423          	sw	a4,-1816(a5) # 8e8 <register_fini-0xf78c>
   118cc:	fffff7b7          	lui	a5,0xfffff
   118d0:	ff040713          	addi	a4,s0,-16
   118d4:	00f70733          	add	a4,a4,a5
   118d8:	000017b7          	lui	a5,0x1
   118dc:	00f707b3          	add	a5,a4,a5
   118e0:	0d600713          	li	a4,214
   118e4:	8ee7a623          	sw	a4,-1812(a5) # 8ec <register_fini-0xf788>
   118e8:	fffff7b7          	lui	a5,0xfffff
   118ec:	ff040713          	addi	a4,s0,-16
   118f0:	00f70733          	add	a4,a4,a5
   118f4:	000017b7          	lui	a5,0x1
   118f8:	00f707b3          	add	a5,a4,a5
   118fc:	0b400713          	li	a4,180
   11900:	8ee7a823          	sw	a4,-1808(a5) # 8f0 <register_fini-0xf784>
   11904:	fffff7b7          	lui	a5,0xfffff
   11908:	ff040713          	addi	a4,s0,-16
   1190c:	00f70733          	add	a4,a4,a5
   11910:	000017b7          	lui	a5,0x1
   11914:	00f707b3          	add	a5,a4,a5
   11918:	00600713          	li	a4,6
   1191c:	8ee7aa23          	sw	a4,-1804(a5) # 8f4 <register_fini-0xf780>
   11920:	fffff7b7          	lui	a5,0xfffff
   11924:	ff040713          	addi	a4,s0,-16
   11928:	00f70733          	add	a4,a4,a5
   1192c:	000017b7          	lui	a5,0x1
   11930:	00f707b3          	add	a5,a4,a5
   11934:	1f700713          	li	a4,503
   11938:	8ee7ac23          	sw	a4,-1800(a5) # 8f8 <register_fini-0xf77c>
   1193c:	fffff7b7          	lui	a5,0xfffff
   11940:	ff040713          	addi	a4,s0,-16
   11944:	00f70733          	add	a4,a4,a5
   11948:	000017b7          	lui	a5,0x1
   1194c:	00f707b3          	add	a5,a4,a5
   11950:	25400713          	li	a4,596
   11954:	8ee7ae23          	sw	a4,-1796(a5) # 8fc <register_fini-0xf778>
   11958:	fffff7b7          	lui	a5,0xfffff
   1195c:	ff040713          	addi	a4,s0,-16
   11960:	00f70733          	add	a4,a4,a5
   11964:	000017b7          	lui	a5,0x1
   11968:	00f707b3          	add	a5,a4,a5
   1196c:	0ad00713          	li	a4,173
   11970:	90e7a023          	sw	a4,-1792(a5) # 900 <register_fini-0xf774>
   11974:	fffff7b7          	lui	a5,0xfffff
   11978:	ff040713          	addi	a4,s0,-16
   1197c:	00f70733          	add	a4,a4,a5
   11980:	000017b7          	lui	a5,0x1
   11984:	00f707b3          	add	a5,a4,a5
   11988:	28300713          	li	a4,643
   1198c:	90e7a223          	sw	a4,-1788(a5) # 904 <register_fini-0xf770>
   11990:	fffff7b7          	lui	a5,0xfffff
   11994:	ff040713          	addi	a4,s0,-16
   11998:	00f70733          	add	a4,a4,a5
   1199c:	000017b7          	lui	a5,0x1
   119a0:	00f707b3          	add	a5,a4,a5
   119a4:	15a00713          	li	a4,346
   119a8:	90e7a423          	sw	a4,-1784(a5) # 908 <register_fini-0xf76c>
   119ac:	fffff7b7          	lui	a5,0xfffff
   119b0:	ff040713          	addi	a4,s0,-16
   119b4:	00f70733          	add	a4,a4,a5
   119b8:	000017b7          	lui	a5,0x1
   119bc:	00f707b3          	add	a5,a4,a5
   119c0:	25700713          	li	a4,599
   119c4:	90e7a623          	sw	a4,-1780(a5) # 90c <register_fini-0xf768>
   119c8:	fffff7b7          	lui	a5,0xfffff
   119cc:	ff040713          	addi	a4,s0,-16
   119d0:	00f70733          	add	a4,a4,a5
   119d4:	000017b7          	lui	a5,0x1
   119d8:	00f707b3          	add	a5,a4,a5
   119dc:	04400713          	li	a4,68
   119e0:	90e7a823          	sw	a4,-1776(a5) # 910 <register_fini-0xf764>
   119e4:	fffff7b7          	lui	a5,0xfffff
   119e8:	ff040713          	addi	a4,s0,-16
   119ec:	00f70733          	add	a4,a4,a5
   119f0:	000017b7          	lui	a5,0x1
   119f4:	00f707b3          	add	a5,a4,a5
   119f8:	35100713          	li	a4,849
   119fc:	90e7aa23          	sw	a4,-1772(a5) # 914 <register_fini-0xf760>
   11a00:	fffff7b7          	lui	a5,0xfffff
   11a04:	ff040713          	addi	a4,s0,-16
   11a08:	00f70733          	add	a4,a4,a5
   11a0c:	000017b7          	lui	a5,0x1
   11a10:	00f707b3          	add	a5,a4,a5
   11a14:	29200713          	li	a4,658
   11a18:	90e7ac23          	sw	a4,-1768(a5) # 918 <register_fini-0xf75c>
   11a1c:	fffff7b7          	lui	a5,0xfffff
   11a20:	ff040713          	addi	a4,s0,-16
   11a24:	00f70733          	add	a4,a4,a5
   11a28:	000017b7          	lui	a5,0x1
   11a2c:	00f707b3          	add	a5,a4,a5
   11a30:	26b00713          	li	a4,619
   11a34:	90e7ae23          	sw	a4,-1764(a5) # 91c <register_fini-0xf758>
   11a38:	fffff7b7          	lui	a5,0xfffff
   11a3c:	ff040713          	addi	a4,s0,-16
   11a40:	00f70733          	add	a4,a4,a5
   11a44:	000017b7          	lui	a5,0x1
   11a48:	00f707b3          	add	a5,a4,a5
   11a4c:	07900713          	li	a4,121
   11a50:	92e7a023          	sw	a4,-1760(a5) # 920 <register_fini-0xf754>
   11a54:	fffff7b7          	lui	a5,0xfffff
   11a58:	ff040713          	addi	a4,s0,-16
   11a5c:	00f70733          	add	a4,a4,a5
   11a60:	000017b7          	lui	a5,0x1
   11a64:	00f707b3          	add	a5,a4,a5
   11a68:	08300713          	li	a4,131
   11a6c:	92e7a223          	sw	a4,-1756(a5) # 924 <register_fini-0xf750>
   11a70:	fffff7b7          	lui	a5,0xfffff
   11a74:	ff040713          	addi	a4,s0,-16
   11a78:	00f70733          	add	a4,a4,a5
   11a7c:	000017b7          	lui	a5,0x1
   11a80:	00f707b3          	add	a5,a4,a5
   11a84:	33c00713          	li	a4,828
   11a88:	92e7a423          	sw	a4,-1752(a5) # 928 <register_fini-0xf74c>
   11a8c:	fffff7b7          	lui	a5,0xfffff
   11a90:	ff040713          	addi	a4,s0,-16
   11a94:	00f70733          	add	a4,a4,a5
   11a98:	000017b7          	lui	a5,0x1
   11a9c:	00f707b3          	add	a5,a4,a5
   11aa0:	29b00713          	li	a4,667
   11aa4:	92e7a623          	sw	a4,-1748(a5) # 92c <register_fini-0xf748>
   11aa8:	fffff7b7          	lui	a5,0xfffff
   11aac:	ff040713          	addi	a4,s0,-16
   11ab0:	00f70733          	add	a4,a4,a5
   11ab4:	000017b7          	lui	a5,0x1
   11ab8:	00f707b3          	add	a5,a4,a5
   11abc:	1b100713          	li	a4,433
   11ac0:	92e7a823          	sw	a4,-1744(a5) # 930 <register_fini-0xf744>
   11ac4:	fffff7b7          	lui	a5,0xfffff
   11ac8:	ff040713          	addi	a4,s0,-16
   11acc:	00f70733          	add	a4,a4,a5
   11ad0:	000017b7          	lui	a5,0x1
   11ad4:	00f707b3          	add	a5,a4,a5
   11ad8:	1e700713          	li	a4,487
   11adc:	92e7aa23          	sw	a4,-1740(a5) # 934 <register_fini-0xf740>
   11ae0:	fffff7b7          	lui	a5,0xfffff
   11ae4:	ff040713          	addi	a4,s0,-16
   11ae8:	00f70733          	add	a4,a4,a5
   11aec:	000017b7          	lui	a5,0x1
   11af0:	00f707b3          	add	a5,a4,a5
   11af4:	2f100713          	li	a4,753
   11af8:	92e7ac23          	sw	a4,-1736(a5) # 938 <register_fini-0xf73c>
   11afc:	fffff7b7          	lui	a5,0xfffff
   11b00:	ff040713          	addi	a4,s0,-16
   11b04:	00f70733          	add	a4,a4,a5
   11b08:	000017b7          	lui	a5,0x1
   11b0c:	00f707b3          	add	a5,a4,a5
   11b10:	07d00713          	li	a4,125
   11b14:	92e7ae23          	sw	a4,-1732(a5) # 93c <register_fini-0xf738>
   11b18:	fffff7b7          	lui	a5,0xfffff
   11b1c:	ff040713          	addi	a4,s0,-16
   11b20:	00f70733          	add	a4,a4,a5
   11b24:	000017b7          	lui	a5,0x1
   11b28:	00f707b3          	add	a5,a4,a5
   11b2c:	27200713          	li	a4,626
   11b30:	94e7a023          	sw	a4,-1728(a5) # 940 <register_fini-0xf734>
   11b34:	fffff7b7          	lui	a5,0xfffff
   11b38:	ff040713          	addi	a4,s0,-16
   11b3c:	00f70733          	add	a4,a4,a5
   11b40:	000017b7          	lui	a5,0x1
   11b44:	00f707b3          	add	a5,a4,a5
   11b48:	00e00713          	li	a4,14
   11b4c:	94e7a223          	sw	a4,-1724(a5) # 944 <register_fini-0xf730>
   11b50:	fffff7b7          	lui	a5,0xfffff
   11b54:	ff040713          	addi	a4,s0,-16
   11b58:	00f70733          	add	a4,a4,a5
   11b5c:	000017b7          	lui	a5,0x1
   11b60:	00f707b3          	add	a5,a4,a5
   11b64:	00a00713          	li	a4,10
   11b68:	94e7a423          	sw	a4,-1720(a5) # 948 <register_fini-0xf72c>
   11b6c:	fffff7b7          	lui	a5,0xfffff
   11b70:	ff040713          	addi	a4,s0,-16
   11b74:	00f70733          	add	a4,a4,a5
   11b78:	000017b7          	lui	a5,0x1
   11b7c:	00f707b3          	add	a5,a4,a5
   11b80:	19300713          	li	a4,403
   11b84:	94e7a623          	sw	a4,-1716(a5) # 94c <register_fini-0xf728>
   11b88:	fffff7b7          	lui	a5,0xfffff
   11b8c:	ff040713          	addi	a4,s0,-16
   11b90:	00f70733          	add	a4,a4,a5
   11b94:	000017b7          	lui	a5,0x1
   11b98:	00f707b3          	add	a5,a4,a5
   11b9c:	06a00713          	li	a4,106
   11ba0:	94e7a823          	sw	a4,-1712(a5) # 950 <register_fini-0xf724>
   11ba4:	fffff7b7          	lui	a5,0xfffff
   11ba8:	ff040713          	addi	a4,s0,-16
   11bac:	00f70733          	add	a4,a4,a5
   11bb0:	000017b7          	lui	a5,0x1
   11bb4:	00f707b3          	add	a5,a4,a5
   11bb8:	2bf00713          	li	a4,703
   11bbc:	94e7aa23          	sw	a4,-1708(a5) # 954 <register_fini-0xf720>
   11bc0:	fffff7b7          	lui	a5,0xfffff
   11bc4:	ff040713          	addi	a4,s0,-16
   11bc8:	00f70733          	add	a4,a4,a5
   11bcc:	000017b7          	lui	a5,0x1
   11bd0:	00f707b3          	add	a5,a4,a5
   11bd4:	33200713          	li	a4,818
   11bd8:	94e7ac23          	sw	a4,-1704(a5) # 958 <register_fini-0xf71c>
   11bdc:	fffff7b7          	lui	a5,0xfffff
   11be0:	ff040713          	addi	a4,s0,-16
   11be4:	00f70733          	add	a4,a4,a5
   11be8:	000017b7          	lui	a5,0x1
   11bec:	00f707b3          	add	a5,a4,a5
   11bf0:	3c400713          	li	a4,964
   11bf4:	94e7ae23          	sw	a4,-1700(a5) # 95c <register_fini-0xf718>
   11bf8:	fffff7b7          	lui	a5,0xfffff
   11bfc:	ff040713          	addi	a4,s0,-16
   11c00:	00f70733          	add	a4,a4,a5
   11c04:	000017b7          	lui	a5,0x1
   11c08:	00f707b3          	add	a5,a4,a5
   11c0c:	19600713          	li	a4,406
   11c10:	96e7a023          	sw	a4,-1696(a5) # 960 <register_fini-0xf714>
   11c14:	fffff7b7          	lui	a5,0xfffff
   11c18:	ff040713          	addi	a4,s0,-16
   11c1c:	00f70733          	add	a4,a4,a5
   11c20:	000017b7          	lui	a5,0x1
   11c24:	00f707b3          	add	a5,a4,a5
   11c28:	36a00713          	li	a4,874
   11c2c:	96e7a223          	sw	a4,-1692(a5) # 964 <register_fini-0xf710>
   11c30:	fffff7b7          	lui	a5,0xfffff
   11c34:	ff040713          	addi	a4,s0,-16
   11c38:	00f70733          	add	a4,a4,a5
   11c3c:	000017b7          	lui	a5,0x1
   11c40:	00f707b3          	add	a5,a4,a5
   11c44:	35800713          	li	a4,856
   11c48:	96e7a423          	sw	a4,-1688(a5) # 968 <register_fini-0xf70c>
   11c4c:	fffff7b7          	lui	a5,0xfffff
   11c50:	ff040713          	addi	a4,s0,-16
   11c54:	00f70733          	add	a4,a4,a5
   11c58:	000017b7          	lui	a5,0x1
   11c5c:	00f707b3          	add	a5,a4,a5
   11c60:	05600713          	li	a4,86
   11c64:	96e7a623          	sw	a4,-1684(a5) # 96c <register_fini-0xf708>
   11c68:	fffff7b7          	lui	a5,0xfffff
   11c6c:	ff040713          	addi	a4,s0,-16
   11c70:	00f70733          	add	a4,a4,a5
   11c74:	000017b7          	lui	a5,0x1
   11c78:	00f707b3          	add	a5,a4,a5
   11c7c:	03c00713          	li	a4,60
   11c80:	96e7a823          	sw	a4,-1680(a5) # 970 <register_fini-0xf704>
   11c84:	fffff7b7          	lui	a5,0xfffff
   11c88:	ff040713          	addi	a4,s0,-16
   11c8c:	00f70733          	add	a4,a4,a5
   11c90:	000017b7          	lui	a5,0x1
   11c94:	00f707b3          	add	a5,a4,a5
   11c98:	29400713          	li	a4,660
   11c9c:	96e7aa23          	sw	a4,-1676(a5) # 974 <register_fini-0xf700>
   11ca0:	fffff7b7          	lui	a5,0xfffff
   11ca4:	ff040713          	addi	a4,s0,-16
   11ca8:	00f70733          	add	a4,a4,a5
   11cac:	000017b7          	lui	a5,0x1
   11cb0:	00f707b3          	add	a5,a4,a5
   11cb4:	29b00713          	li	a4,667
   11cb8:	96e7ac23          	sw	a4,-1672(a5) # 978 <register_fini-0xf6fc>
   11cbc:	fffff7b7          	lui	a5,0xfffff
   11cc0:	ff040713          	addi	a4,s0,-16
   11cc4:	00f70733          	add	a4,a4,a5
   11cc8:	000017b7          	lui	a5,0x1
   11ccc:	00f707b3          	add	a5,a4,a5
   11cd0:	09900713          	li	a4,153
   11cd4:	96e7ae23          	sw	a4,-1668(a5) # 97c <register_fini-0xf6f8>
   11cd8:	fffff7b7          	lui	a5,0xfffff
   11cdc:	ff040713          	addi	a4,s0,-16
   11ce0:	00f70733          	add	a4,a4,a5
   11ce4:	000017b7          	lui	a5,0x1
   11ce8:	00f707b3          	add	a5,a4,a5
   11cec:	07900713          	li	a4,121
   11cf0:	98e7a023          	sw	a4,-1664(a5) # 980 <register_fini-0xf6f4>
   11cf4:	fffff7b7          	lui	a5,0xfffff
   11cf8:	ff040713          	addi	a4,s0,-16
   11cfc:	00f70733          	add	a4,a4,a5
   11d00:	000017b7          	lui	a5,0x1
   11d04:	00f707b3          	add	a5,a4,a5
   11d08:	06200713          	li	a4,98
   11d0c:	98e7a223          	sw	a4,-1660(a5) # 984 <register_fini-0xf6f0>
   11d10:	fffff7b7          	lui	a5,0xfffff
   11d14:	ff040713          	addi	a4,s0,-16
   11d18:	00f70733          	add	a4,a4,a5
   11d1c:	000017b7          	lui	a5,0x1
   11d20:	00f707b3          	add	a5,a4,a5
   11d24:	19c00713          	li	a4,412
   11d28:	98e7a423          	sw	a4,-1656(a5) # 988 <register_fini-0xf6ec>
   11d2c:	fffff7b7          	lui	a5,0xfffff
   11d30:	ff040713          	addi	a4,s0,-16
   11d34:	00f70733          	add	a4,a4,a5
   11d38:	000017b7          	lui	a5,0x1
   11d3c:	00f707b3          	add	a5,a4,a5
   11d40:	0ec00713          	li	a4,236
   11d44:	98e7a623          	sw	a4,-1652(a5) # 98c <register_fini-0xf6e8>
   11d48:	fffff7b7          	lui	a5,0xfffff
   11d4c:	ff040713          	addi	a4,s0,-16
   11d50:	00f70733          	add	a4,a4,a5
   11d54:	000017b7          	lui	a5,0x1
   11d58:	00f707b3          	add	a5,a4,a5
   11d5c:	00c00713          	li	a4,12
   11d60:	98e7a823          	sw	a4,-1648(a5) # 990 <register_fini-0xf6e4>
   11d64:	fffff7b7          	lui	a5,0xfffff
   11d68:	ff040713          	addi	a4,s0,-16
   11d6c:	00f70733          	add	a4,a4,a5
   11d70:	000017b7          	lui	a5,0x1
   11d74:	00f707b3          	add	a5,a4,a5
   11d78:	1a700713          	li	a4,423
   11d7c:	98e7aa23          	sw	a4,-1644(a5) # 994 <register_fini-0xf6e0>
   11d80:	fffff7b7          	lui	a5,0xfffff
   11d84:	ff040713          	addi	a4,s0,-16
   11d88:	00f70733          	add	a4,a4,a5
   11d8c:	000017b7          	lui	a5,0x1
   11d90:	00f707b3          	add	a5,a4,a5
   11d94:	3c500713          	li	a4,965
   11d98:	98e7ac23          	sw	a4,-1640(a5) # 998 <register_fini-0xf6dc>
   11d9c:	fffff7b7          	lui	a5,0xfffff
   11da0:	ff040713          	addi	a4,s0,-16
   11da4:	00f70733          	add	a4,a4,a5
   11da8:	000017b7          	lui	a5,0x1
   11dac:	00f707b3          	add	a5,a4,a5
   11db0:	0d800713          	li	a4,216
   11db4:	98e7ae23          	sw	a4,-1636(a5) # 99c <register_fini-0xf6d8>
   11db8:	fffff7b7          	lui	a5,0xfffff
   11dbc:	ff040713          	addi	a4,s0,-16
   11dc0:	00f70733          	add	a4,a4,a5
   11dc4:	000017b7          	lui	a5,0x1
   11dc8:	00f707b3          	add	a5,a4,a5
   11dcc:	26d00713          	li	a4,621
   11dd0:	9ae7a023          	sw	a4,-1632(a5) # 9a0 <register_fini-0xf6d4>
   11dd4:	fffff7b7          	lui	a5,0xfffff
   11dd8:	ff040713          	addi	a4,s0,-16
   11ddc:	00f70733          	add	a4,a4,a5
   11de0:	000017b7          	lui	a5,0x1
   11de4:	00f707b3          	add	a5,a4,a5
   11de8:	16900713          	li	a4,361
   11dec:	9ae7a223          	sw	a4,-1628(a5) # 9a4 <register_fini-0xf6d0>
   11df0:	fffff7b7          	lui	a5,0xfffff
   11df4:	ff040713          	addi	a4,s0,-16
   11df8:	00f70733          	add	a4,a4,a5
   11dfc:	000017b7          	lui	a5,0x1
   11e00:	00f707b3          	add	a5,a4,a5
   11e04:	39900713          	li	a4,921
   11e08:	9ae7a423          	sw	a4,-1624(a5) # 9a8 <register_fini-0xf6cc>
   11e0c:	fffff7b7          	lui	a5,0xfffff
   11e10:	ff040713          	addi	a4,s0,-16
   11e14:	00f70733          	add	a4,a4,a5
   11e18:	000017b7          	lui	a5,0x1
   11e1c:	00f707b3          	add	a5,a4,a5
   11e20:	2cb00713          	li	a4,715
   11e24:	9ae7a623          	sw	a4,-1620(a5) # 9ac <register_fini-0xf6c8>
   11e28:	fffff7b7          	lui	a5,0xfffff
   11e2c:	ff040713          	addi	a4,s0,-16
   11e30:	00f70733          	add	a4,a4,a5
   11e34:	000017b7          	lui	a5,0x1
   11e38:	00f707b3          	add	a5,a4,a5
   11e3c:	28700713          	li	a4,647
   11e40:	9ae7a823          	sw	a4,-1616(a5) # 9b0 <register_fini-0xf6c4>
   11e44:	fffff7b7          	lui	a5,0xfffff
   11e48:	ff040713          	addi	a4,s0,-16
   11e4c:	00f70733          	add	a4,a4,a5
   11e50:	000017b7          	lui	a5,0x1
   11e54:	00f707b3          	add	a5,a4,a5
   11e58:	12b00713          	li	a4,299
   11e5c:	9ae7aa23          	sw	a4,-1612(a5) # 9b4 <register_fini-0xf6c0>
   11e60:	fffff7b7          	lui	a5,0xfffff
   11e64:	ff040713          	addi	a4,s0,-16
   11e68:	00f70733          	add	a4,a4,a5
   11e6c:	000017b7          	lui	a5,0x1
   11e70:	00f707b3          	add	a5,a4,a5
   11e74:	37600713          	li	a4,886
   11e78:	9ae7ac23          	sw	a4,-1608(a5) # 9b8 <register_fini-0xf6bc>
   11e7c:	fffff7b7          	lui	a5,0xfffff
   11e80:	ff040713          	addi	a4,s0,-16
   11e84:	00f70733          	add	a4,a4,a5
   11e88:	000017b7          	lui	a5,0x1
   11e8c:	00f707b3          	add	a5,a4,a5
   11e90:	2aa00713          	li	a4,682
   11e94:	9ae7ae23          	sw	a4,-1604(a5) # 9bc <register_fini-0xf6b8>
   11e98:	fffff7b7          	lui	a5,0xfffff
   11e9c:	ff040713          	addi	a4,s0,-16
   11ea0:	00f70733          	add	a4,a4,a5
   11ea4:	000017b7          	lui	a5,0x1
   11ea8:	00f707b3          	add	a5,a4,a5
   11eac:	02400713          	li	a4,36
   11eb0:	9ce7a023          	sw	a4,-1600(a5) # 9c0 <register_fini-0xf6b4>
   11eb4:	fffff7b7          	lui	a5,0xfffff
   11eb8:	ff040713          	addi	a4,s0,-16
   11ebc:	00f70733          	add	a4,a4,a5
   11ec0:	000017b7          	lui	a5,0x1
   11ec4:	00f707b3          	add	a5,a4,a5
   11ec8:	1ed00713          	li	a4,493
   11ecc:	9ce7a223          	sw	a4,-1596(a5) # 9c4 <register_fini-0xf6b0>
   11ed0:	fffff7b7          	lui	a5,0xfffff
   11ed4:	ff040713          	addi	a4,s0,-16
   11ed8:	00f70733          	add	a4,a4,a5
   11edc:	000017b7          	lui	a5,0x1
   11ee0:	00f707b3          	add	a5,a4,a5
   11ee4:	22700713          	li	a4,551
   11ee8:	9ce7a423          	sw	a4,-1592(a5) # 9c8 <register_fini-0xf6ac>
   11eec:	fffff7b7          	lui	a5,0xfffff
   11ef0:	ff040713          	addi	a4,s0,-16
   11ef4:	00f70733          	add	a4,a4,a5
   11ef8:	000017b7          	lui	a5,0x1
   11efc:	00f707b3          	add	a5,a4,a5
   11f00:	21900713          	li	a4,537
   11f04:	9ce7a623          	sw	a4,-1588(a5) # 9cc <register_fini-0xf6a8>
   11f08:	fffff7b7          	lui	a5,0xfffff
   11f0c:	ff040713          	addi	a4,s0,-16
   11f10:	00f70733          	add	a4,a4,a5
   11f14:	000017b7          	lui	a5,0x1
   11f18:	00f707b3          	add	a5,a4,a5
   11f1c:	3c900713          	li	a4,969
   11f20:	9ce7a823          	sw	a4,-1584(a5) # 9d0 <register_fini-0xf6a4>
   11f24:	fffff7b7          	lui	a5,0xfffff
   11f28:	ff040713          	addi	a4,s0,-16
   11f2c:	00f70733          	add	a4,a4,a5
   11f30:	000017b7          	lui	a5,0x1
   11f34:	00f707b3          	add	a5,a4,a5
   11f38:	28300713          	li	a4,643
   11f3c:	9ce7aa23          	sw	a4,-1580(a5) # 9d4 <register_fini-0xf6a0>
   11f40:	fffff7b7          	lui	a5,0xfffff
   11f44:	ff040713          	addi	a4,s0,-16
   11f48:	00f70733          	add	a4,a4,a5
   11f4c:	000017b7          	lui	a5,0x1
   11f50:	00f707b3          	add	a5,a4,a5
   11f54:	1b200713          	li	a4,434
   11f58:	9ce7ac23          	sw	a4,-1576(a5) # 9d8 <register_fini-0xf69c>
   11f5c:	fffff7b7          	lui	a5,0xfffff
   11f60:	ff040713          	addi	a4,s0,-16
   11f64:	00f70733          	add	a4,a4,a5
   11f68:	000017b7          	lui	a5,0x1
   11f6c:	00f707b3          	add	a5,a4,a5
   11f70:	19f00713          	li	a4,415
   11f74:	9ce7ae23          	sw	a4,-1572(a5) # 9dc <register_fini-0xf698>
   11f78:	fffff7b7          	lui	a5,0xfffff
   11f7c:	ff040713          	addi	a4,s0,-16
   11f80:	00f70733          	add	a4,a4,a5
   11f84:	000017b7          	lui	a5,0x1
   11f88:	00f707b3          	add	a5,a4,a5
   11f8c:	12f00713          	li	a4,303
   11f90:	9ee7a023          	sw	a4,-1568(a5) # 9e0 <register_fini-0xf694>
   11f94:	fffff7b7          	lui	a5,0xfffff
   11f98:	ff040713          	addi	a4,s0,-16
   11f9c:	00f70733          	add	a4,a4,a5
   11fa0:	000017b7          	lui	a5,0x1
   11fa4:	00f707b3          	add	a5,a4,a5
   11fa8:	1b600713          	li	a4,438
   11fac:	9ee7a223          	sw	a4,-1564(a5) # 9e4 <register_fini-0xf690>
   11fb0:	fffff7b7          	lui	a5,0xfffff
   11fb4:	ff040713          	addi	a4,s0,-16
   11fb8:	00f70733          	add	a4,a4,a5
   11fbc:	000017b7          	lui	a5,0x1
   11fc0:	00f707b3          	add	a5,a4,a5
   11fc4:	35c00713          	li	a4,860
   11fc8:	9ee7a423          	sw	a4,-1560(a5) # 9e8 <register_fini-0xf68c>
   11fcc:	fffff7b7          	lui	a5,0xfffff
   11fd0:	ff040713          	addi	a4,s0,-16
   11fd4:	00f70733          	add	a4,a4,a5
   11fd8:	000017b7          	lui	a5,0x1
   11fdc:	00f707b3          	add	a5,a4,a5
   11fe0:	0cb00713          	li	a4,203
   11fe4:	9ee7a623          	sw	a4,-1556(a5) # 9ec <register_fini-0xf688>
   11fe8:	fffff7b7          	lui	a5,0xfffff
   11fec:	ff040713          	addi	a4,s0,-16
   11ff0:	00f70733          	add	a4,a4,a5
   11ff4:	000017b7          	lui	a5,0x1
   11ff8:	00f707b3          	add	a5,a4,a5
   11ffc:	1de00713          	li	a4,478
   12000:	9ee7a823          	sw	a4,-1552(a5) # 9f0 <register_fini-0xf684>
   12004:	fffff7b7          	lui	a5,0xfffff
   12008:	ff040713          	addi	a4,s0,-16
   1200c:	00f70733          	add	a4,a4,a5
   12010:	000017b7          	lui	a5,0x1
   12014:	00f707b3          	add	a5,a4,a5
   12018:	3dc00713          	li	a4,988
   1201c:	9ee7aa23          	sw	a4,-1548(a5) # 9f4 <register_fini-0xf680>
   12020:	fffff7b7          	lui	a5,0xfffff
   12024:	ff040713          	addi	a4,s0,-16
   12028:	00f70733          	add	a4,a4,a5
   1202c:	000017b7          	lui	a5,0x1
   12030:	00f707b3          	add	a5,a4,a5
   12034:	2a300713          	li	a4,675
   12038:	9ee7ac23          	sw	a4,-1544(a5) # 9f8 <register_fini-0xf67c>
   1203c:	fffff7b7          	lui	a5,0xfffff
   12040:	ff040713          	addi	a4,s0,-16
   12044:	00f70733          	add	a4,a4,a5
   12048:	000017b7          	lui	a5,0x1
   1204c:	00f707b3          	add	a5,a4,a5
   12050:	2cf00713          	li	a4,719
   12054:	9ee7ae23          	sw	a4,-1540(a5) # 9fc <register_fini-0xf678>
   12058:	fffff7b7          	lui	a5,0xfffff
   1205c:	ff040713          	addi	a4,s0,-16
   12060:	00f70733          	add	a4,a4,a5
   12064:	000017b7          	lui	a5,0x1
   12068:	00f707b3          	add	a5,a4,a5
   1206c:	3de00713          	li	a4,990
   12070:	a0e7a023          	sw	a4,-1536(a5) # a00 <register_fini-0xf674>
   12074:	fffff7b7          	lui	a5,0xfffff
   12078:	ff040713          	addi	a4,s0,-16
   1207c:	00f70733          	add	a4,a4,a5
   12080:	000017b7          	lui	a5,0x1
   12084:	00f707b3          	add	a5,a4,a5
   12088:	15200713          	li	a4,338
   1208c:	a0e7a223          	sw	a4,-1532(a5) # a04 <register_fini-0xf670>
   12090:	fffff7b7          	lui	a5,0xfffff
   12094:	ff040713          	addi	a4,s0,-16
   12098:	00f70733          	add	a4,a4,a5
   1209c:	000017b7          	lui	a5,0x1
   120a0:	00f707b3          	add	a5,a4,a5
   120a4:	1c200713          	li	a4,450
   120a8:	a0e7a423          	sw	a4,-1528(a5) # a08 <register_fini-0xf66c>
   120ac:	fffff7b7          	lui	a5,0xfffff
   120b0:	ff040713          	addi	a4,s0,-16
   120b4:	00f70733          	add	a4,a4,a5
   120b8:	000017b7          	lui	a5,0x1
   120bc:	00f707b3          	add	a5,a4,a5
   120c0:	27900713          	li	a4,633
   120c4:	a0e7a623          	sw	a4,-1524(a5) # a0c <register_fini-0xf668>
   120c8:	fffff7b7          	lui	a5,0xfffff
   120cc:	ff040713          	addi	a4,s0,-16
   120d0:	00f70733          	add	a4,a4,a5
   120d4:	000017b7          	lui	a5,0x1
   120d8:	00f707b3          	add	a5,a4,a5
   120dc:	09b00713          	li	a4,155
   120e0:	a0e7a823          	sw	a4,-1520(a5) # a10 <register_fini-0xf664>
   120e4:	fffff7b7          	lui	a5,0xfffff
   120e8:	ff040713          	addi	a4,s0,-16
   120ec:	00f70733          	add	a4,a4,a5
   120f0:	000017b7          	lui	a5,0x1
   120f4:	00f707b3          	add	a5,a4,a5
   120f8:	28600713          	li	a4,646
   120fc:	a0e7aa23          	sw	a4,-1516(a5) # a14 <register_fini-0xf660>
   12100:	fffff7b7          	lui	a5,0xfffff
   12104:	ff040713          	addi	a4,s0,-16
   12108:	00f70733          	add	a4,a4,a5
   1210c:	000017b7          	lui	a5,0x1
   12110:	00f707b3          	add	a5,a4,a5
   12114:	1c400713          	li	a4,452
   12118:	a0e7ac23          	sw	a4,-1512(a5) # a18 <register_fini-0xf65c>
   1211c:	fffff7b7          	lui	a5,0xfffff
   12120:	ff040713          	addi	a4,s0,-16
   12124:	00f70733          	add	a4,a4,a5
   12128:	000017b7          	lui	a5,0x1
   1212c:	00f707b3          	add	a5,a4,a5
   12130:	1ab00713          	li	a4,427
   12134:	a0e7ae23          	sw	a4,-1508(a5) # a1c <register_fini-0xf658>
   12138:	fffff7b7          	lui	a5,0xfffff
   1213c:	ff040713          	addi	a4,s0,-16
   12140:	00f70733          	add	a4,a4,a5
   12144:	000017b7          	lui	a5,0x1
   12148:	00f707b3          	add	a5,a4,a5
   1214c:	1fd00713          	li	a4,509
   12150:	a2e7a023          	sw	a4,-1504(a5) # a20 <register_fini-0xf654>
   12154:	fffff7b7          	lui	a5,0xfffff
   12158:	ff040713          	addi	a4,s0,-16
   1215c:	00f70733          	add	a4,a4,a5
   12160:	000017b7          	lui	a5,0x1
   12164:	00f707b3          	add	a5,a4,a5
   12168:	3dc00713          	li	a4,988
   1216c:	a2e7a223          	sw	a4,-1500(a5) # a24 <register_fini-0xf650>
   12170:	fffff7b7          	lui	a5,0xfffff
   12174:	ff040713          	addi	a4,s0,-16
   12178:	00f70733          	add	a4,a4,a5
   1217c:	000017b7          	lui	a5,0x1
   12180:	00f707b3          	add	a5,a4,a5
   12184:	1aa00713          	li	a4,426
   12188:	a2e7a423          	sw	a4,-1496(a5) # a28 <register_fini-0xf64c>
   1218c:	fffff7b7          	lui	a5,0xfffff
   12190:	ff040713          	addi	a4,s0,-16
   12194:	00f70733          	add	a4,a4,a5
   12198:	000017b7          	lui	a5,0x1
   1219c:	00f707b3          	add	a5,a4,a5
   121a0:	00c00713          	li	a4,12
   121a4:	a2e7a623          	sw	a4,-1492(a5) # a2c <register_fini-0xf648>
   121a8:	fffff7b7          	lui	a5,0xfffff
   121ac:	ff040713          	addi	a4,s0,-16
   121b0:	00f70733          	add	a4,a4,a5
   121b4:	000017b7          	lui	a5,0x1
   121b8:	00f707b3          	add	a5,a4,a5
   121bc:	1e300713          	li	a4,483
   121c0:	a2e7a823          	sw	a4,-1488(a5) # a30 <register_fini-0xf644>
   121c4:	fffff7b7          	lui	a5,0xfffff
   121c8:	ff040713          	addi	a4,s0,-16
   121cc:	00f70733          	add	a4,a4,a5
   121d0:	000017b7          	lui	a5,0x1
   121d4:	00f707b3          	add	a5,a4,a5
   121d8:	08e00713          	li	a4,142
   121dc:	a2e7aa23          	sw	a4,-1484(a5) # a34 <register_fini-0xf640>
   121e0:	fffff7b7          	lui	a5,0xfffff
   121e4:	ff040713          	addi	a4,s0,-16
   121e8:	00f70733          	add	a4,a4,a5
   121ec:	000017b7          	lui	a5,0x1
   121f0:	00f707b3          	add	a5,a4,a5
   121f4:	15300713          	li	a4,339
   121f8:	a2e7ac23          	sw	a4,-1480(a5) # a38 <register_fini-0xf63c>
   121fc:	fffff7b7          	lui	a5,0xfffff
   12200:	ff040713          	addi	a4,s0,-16
   12204:	00f70733          	add	a4,a4,a5
   12208:	000017b7          	lui	a5,0x1
   1220c:	00f707b3          	add	a5,a4,a5
   12210:	18600713          	li	a4,390
   12214:	a2e7ae23          	sw	a4,-1476(a5) # a3c <register_fini-0xf638>
   12218:	fffff7b7          	lui	a5,0xfffff
   1221c:	ff040713          	addi	a4,s0,-16
   12220:	00f70733          	add	a4,a4,a5
   12224:	000017b7          	lui	a5,0x1
   12228:	00f707b3          	add	a5,a4,a5
   1222c:	03200713          	li	a4,50
   12230:	a4e7a023          	sw	a4,-1472(a5) # a40 <register_fini-0xf634>
   12234:	fffff7b7          	lui	a5,0xfffff
   12238:	ff040713          	addi	a4,s0,-16
   1223c:	00f70733          	add	a4,a4,a5
   12240:	000017b7          	lui	a5,0x1
   12244:	00f707b3          	add	a5,a4,a5
   12248:	0ab00713          	li	a4,171
   1224c:	a4e7a223          	sw	a4,-1468(a5) # a44 <register_fini-0xf630>
   12250:	fffff7b7          	lui	a5,0xfffff
   12254:	ff040713          	addi	a4,s0,-16
   12258:	00f70733          	add	a4,a4,a5
   1225c:	000017b7          	lui	a5,0x1
   12260:	00f707b3          	add	a5,a4,a5
   12264:	25900713          	li	a4,601
   12268:	a4e7a423          	sw	a4,-1464(a5) # a48 <register_fini-0xf62c>
   1226c:	fffff7b7          	lui	a5,0xfffff
   12270:	ff040713          	addi	a4,s0,-16
   12274:	00f70733          	add	a4,a4,a5
   12278:	000017b7          	lui	a5,0x1
   1227c:	00f707b3          	add	a5,a4,a5
   12280:	06900713          	li	a4,105
   12284:	a4e7a623          	sw	a4,-1460(a5) # a4c <register_fini-0xf628>
   12288:	fffff7b7          	lui	a5,0xfffff
   1228c:	ff040713          	addi	a4,s0,-16
   12290:	00f70733          	add	a4,a4,a5
   12294:	000017b7          	lui	a5,0x1
   12298:	00f707b3          	add	a5,a4,a5
   1229c:	3c800713          	li	a4,968
   122a0:	a4e7a823          	sw	a4,-1456(a5) # a50 <register_fini-0xf624>
   122a4:	fffff7b7          	lui	a5,0xfffff
   122a8:	ff040713          	addi	a4,s0,-16
   122ac:	00f70733          	add	a4,a4,a5
   122b0:	000017b7          	lui	a5,0x1
   122b4:	00f707b3          	add	a5,a4,a5
   122b8:	07900713          	li	a4,121
   122bc:	a4e7aa23          	sw	a4,-1452(a5) # a54 <register_fini-0xf620>
   122c0:	fffff7b7          	lui	a5,0xfffff
   122c4:	ff040713          	addi	a4,s0,-16
   122c8:	00f70733          	add	a4,a4,a5
   122cc:	000017b7          	lui	a5,0x1
   122d0:	00f707b3          	add	a5,a4,a5
   122d4:	36f00713          	li	a4,879
   122d8:	a4e7ac23          	sw	a4,-1448(a5) # a58 <register_fini-0xf61c>
   122dc:	fffff7b7          	lui	a5,0xfffff
   122e0:	ff040713          	addi	a4,s0,-16
   122e4:	00f70733          	add	a4,a4,a5
   122e8:	000017b7          	lui	a5,0x1
   122ec:	00f707b3          	add	a5,a4,a5
   122f0:	05100713          	li	a4,81
   122f4:	a4e7ae23          	sw	a4,-1444(a5) # a5c <register_fini-0xf618>
   122f8:	fffff7b7          	lui	a5,0xfffff
   122fc:	ff040713          	addi	a4,s0,-16
   12300:	00f70733          	add	a4,a4,a5
   12304:	000017b7          	lui	a5,0x1
   12308:	00f707b3          	add	a5,a4,a5
   1230c:	36600713          	li	a4,870
   12310:	a6e7a023          	sw	a4,-1440(a5) # a60 <register_fini-0xf614>
   12314:	fffff7b7          	lui	a5,0xfffff
   12318:	ff040713          	addi	a4,s0,-16
   1231c:	00f70733          	add	a4,a4,a5
   12320:	000017b7          	lui	a5,0x1
   12324:	00f707b3          	add	a5,a4,a5
   12328:	25800713          	li	a4,600
   1232c:	a6e7a223          	sw	a4,-1436(a5) # a64 <register_fini-0xf610>
   12330:	fffff7b7          	lui	a5,0xfffff
   12334:	ff040713          	addi	a4,s0,-16
   12338:	00f70733          	add	a4,a4,a5
   1233c:	000017b7          	lui	a5,0x1
   12340:	00f707b3          	add	a5,a4,a5
   12344:	25b00713          	li	a4,603
   12348:	a6e7a423          	sw	a4,-1432(a5) # a68 <register_fini-0xf60c>
   1234c:	fffff7b7          	lui	a5,0xfffff
   12350:	ff040713          	addi	a4,s0,-16
   12354:	00f70733          	add	a4,a4,a5
   12358:	000017b7          	lui	a5,0x1
   1235c:	00f707b3          	add	a5,a4,a5
   12360:	36700713          	li	a4,871
   12364:	a6e7a623          	sw	a4,-1428(a5) # a6c <register_fini-0xf608>
   12368:	fffff7b7          	lui	a5,0xfffff
   1236c:	ff040713          	addi	a4,s0,-16
   12370:	00f70733          	add	a4,a4,a5
   12374:	000017b7          	lui	a5,0x1
   12378:	00f707b3          	add	a5,a4,a5
   1237c:	37700713          	li	a4,887
   12380:	a6e7a823          	sw	a4,-1424(a5) # a70 <register_fini-0xf604>
   12384:	fffff7b7          	lui	a5,0xfffff
   12388:	ff040713          	addi	a4,s0,-16
   1238c:	00f70733          	add	a4,a4,a5
   12390:	000017b7          	lui	a5,0x1
   12394:	00f707b3          	add	a5,a4,a5
   12398:	26200713          	li	a4,610
   1239c:	a6e7aa23          	sw	a4,-1420(a5) # a74 <register_fini-0xf600>
   123a0:	fffff7b7          	lui	a5,0xfffff
   123a4:	ff040713          	addi	a4,s0,-16
   123a8:	00f70733          	add	a4,a4,a5
   123ac:	000017b7          	lui	a5,0x1
   123b0:	00f707b3          	add	a5,a4,a5
   123b4:	19400713          	li	a4,404
   123b8:	a6e7ac23          	sw	a4,-1416(a5) # a78 <register_fini-0xf5fc>
   123bc:	fffff7b7          	lui	a5,0xfffff
   123c0:	ff040713          	addi	a4,s0,-16
   123c4:	00f70733          	add	a4,a4,a5
   123c8:	000017b7          	lui	a5,0x1
   123cc:	00f707b3          	add	a5,a4,a5
   123d0:	0ea00713          	li	a4,234
   123d4:	a6e7ae23          	sw	a4,-1412(a5) # a7c <register_fini-0xf5f8>
   123d8:	fffff7b7          	lui	a5,0xfffff
   123dc:	ff040713          	addi	a4,s0,-16
   123e0:	00f70733          	add	a4,a4,a5
   123e4:	000017b7          	lui	a5,0x1
   123e8:	00f707b3          	add	a5,a4,a5
   123ec:	2e900713          	li	a4,745
   123f0:	a8e7a023          	sw	a4,-1408(a5) # a80 <register_fini-0xf5f4>
   123f4:	fffff7b7          	lui	a5,0xfffff
   123f8:	ff040713          	addi	a4,s0,-16
   123fc:	00f70733          	add	a4,a4,a5
   12400:	000017b7          	lui	a5,0x1
   12404:	00f707b3          	add	a5,a4,a5
   12408:	20e00713          	li	a4,526
   1240c:	a8e7a223          	sw	a4,-1404(a5) # a84 <register_fini-0xf5f0>
   12410:	fffff7b7          	lui	a5,0xfffff
   12414:	ff040713          	addi	a4,s0,-16
   12418:	00f70733          	add	a4,a4,a5
   1241c:	000017b7          	lui	a5,0x1
   12420:	00f707b3          	add	a5,a4,a5
   12424:	11300713          	li	a4,275
   12428:	a8e7a423          	sw	a4,-1400(a5) # a88 <register_fini-0xf5ec>
   1242c:	fffff7b7          	lui	a5,0xfffff
   12430:	ff040713          	addi	a4,s0,-16
   12434:	00f70733          	add	a4,a4,a5
   12438:	000017b7          	lui	a5,0x1
   1243c:	00f707b3          	add	a5,a4,a5
   12440:	1b900713          	li	a4,441
   12444:	a8e7a623          	sw	a4,-1396(a5) # a8c <register_fini-0xf5e8>
   12448:	fffff7b7          	lui	a5,0xfffff
   1244c:	ff040713          	addi	a4,s0,-16
   12450:	00f70733          	add	a4,a4,a5
   12454:	000017b7          	lui	a5,0x1
   12458:	00f707b3          	add	a5,a4,a5
   1245c:	0e200713          	li	a4,226
   12460:	a8e7a823          	sw	a4,-1392(a5) # a90 <register_fini-0xf5e4>
   12464:	fffff7b7          	lui	a5,0xfffff
   12468:	ff040713          	addi	a4,s0,-16
   1246c:	00f70733          	add	a4,a4,a5
   12470:	000017b7          	lui	a5,0x1
   12474:	00f707b3          	add	a5,a4,a5
   12478:	2f000713          	li	a4,752
   1247c:	a8e7aa23          	sw	a4,-1388(a5) # a94 <register_fini-0xf5e0>
   12480:	fffff7b7          	lui	a5,0xfffff
   12484:	ff040713          	addi	a4,s0,-16
   12488:	00f70733          	add	a4,a4,a5
   1248c:	000017b7          	lui	a5,0x1
   12490:	00f707b3          	add	a5,a4,a5
   12494:	3af00713          	li	a4,943
   12498:	a8e7ac23          	sw	a4,-1384(a5) # a98 <register_fini-0xf5dc>
   1249c:	fffff7b7          	lui	a5,0xfffff
   124a0:	ff040713          	addi	a4,s0,-16
   124a4:	00f70733          	add	a4,a4,a5
   124a8:	000017b7          	lui	a5,0x1
   124ac:	00f707b3          	add	a5,a4,a5
   124b0:	2d600713          	li	a4,726
   124b4:	a8e7ae23          	sw	a4,-1380(a5) # a9c <register_fini-0xf5d8>
   124b8:	fffff7b7          	lui	a5,0xfffff
   124bc:	ff040713          	addi	a4,s0,-16
   124c0:	00f70733          	add	a4,a4,a5
   124c4:	000017b7          	lui	a5,0x1
   124c8:	00f707b3          	add	a5,a4,a5
   124cc:	2c500713          	li	a4,709
   124d0:	aae7a023          	sw	a4,-1376(a5) # aa0 <register_fini-0xf5d4>
   124d4:	fffff7b7          	lui	a5,0xfffff
   124d8:	ff040713          	addi	a4,s0,-16
   124dc:	00f70733          	add	a4,a4,a5
   124e0:	000017b7          	lui	a5,0x1
   124e4:	00f707b3          	add	a5,a4,a5
   124e8:	0c900713          	li	a4,201
   124ec:	aae7a223          	sw	a4,-1372(a5) # aa4 <register_fini-0xf5d0>
   124f0:	fffff7b7          	lui	a5,0xfffff
   124f4:	ff040713          	addi	a4,s0,-16
   124f8:	00f70733          	add	a4,a4,a5
   124fc:	000017b7          	lui	a5,0x1
   12500:	00f707b3          	add	a5,a4,a5
   12504:	03600713          	li	a4,54
   12508:	aae7a423          	sw	a4,-1368(a5) # aa8 <register_fini-0xf5cc>
   1250c:	fffff7b7          	lui	a5,0xfffff
   12510:	ff040713          	addi	a4,s0,-16
   12514:	00f70733          	add	a4,a4,a5
   12518:	000017b7          	lui	a5,0x1
   1251c:	00f707b3          	add	a5,a4,a5
   12520:	2f600713          	li	a4,758
   12524:	aae7a623          	sw	a4,-1364(a5) # aac <register_fini-0xf5c8>
   12528:	fffff7b7          	lui	a5,0xfffff
   1252c:	ff040713          	addi	a4,s0,-16
   12530:	00f70733          	add	a4,a4,a5
   12534:	000017b7          	lui	a5,0x1
   12538:	00f707b3          	add	a5,a4,a5
   1253c:	03500713          	li	a4,53
   12540:	aae7a823          	sw	a4,-1360(a5) # ab0 <register_fini-0xf5c4>
   12544:	fffff7b7          	lui	a5,0xfffff
   12548:	ff040713          	addi	a4,s0,-16
   1254c:	00f70733          	add	a4,a4,a5
   12550:	000017b7          	lui	a5,0x1
   12554:	00f707b3          	add	a5,a4,a5
   12558:	18d00713          	li	a4,397
   1255c:	aae7aa23          	sw	a4,-1356(a5) # ab4 <register_fini-0xf5c0>
   12560:	fffff7b7          	lui	a5,0xfffff
   12564:	ff040713          	addi	a4,s0,-16
   12568:	00f70733          	add	a4,a4,a5
   1256c:	000017b7          	lui	a5,0x1
   12570:	00f707b3          	add	a5,a4,a5
   12574:	02900713          	li	a4,41
   12578:	aae7ac23          	sw	a4,-1352(a5) # ab8 <register_fini-0xf5bc>
   1257c:	fffff7b7          	lui	a5,0xfffff
   12580:	ff040713          	addi	a4,s0,-16
   12584:	00f70733          	add	a4,a4,a5
   12588:	000017b7          	lui	a5,0x1
   1258c:	00f707b3          	add	a5,a4,a5
   12590:	08d00713          	li	a4,141
   12594:	aae7ae23          	sw	a4,-1348(a5) # abc <register_fini-0xf5b8>
   12598:	fffff7b7          	lui	a5,0xfffff
   1259c:	ff040713          	addi	a4,s0,-16
   125a0:	00f70733          	add	a4,a4,a5
   125a4:	000017b7          	lui	a5,0x1
   125a8:	00f707b3          	add	a5,a4,a5
   125ac:	1a000713          	li	a4,416
   125b0:	ace7a023          	sw	a4,-1344(a5) # ac0 <register_fini-0xf5b4>
   125b4:	fffff7b7          	lui	a5,0xfffff
   125b8:	ff040713          	addi	a4,s0,-16
   125bc:	00f70733          	add	a4,a4,a5
   125c0:	000017b7          	lui	a5,0x1
   125c4:	00f707b3          	add	a5,a4,a5
   125c8:	2eb00713          	li	a4,747
   125cc:	ace7a223          	sw	a4,-1340(a5) # ac4 <register_fini-0xf5b0>
   125d0:	fffff7b7          	lui	a5,0xfffff
   125d4:	ff040713          	addi	a4,s0,-16
   125d8:	00f70733          	add	a4,a4,a5
   125dc:	000017b7          	lui	a5,0x1
   125e0:	00f707b3          	add	a5,a4,a5
   125e4:	0db00713          	li	a4,219
   125e8:	ace7a423          	sw	a4,-1336(a5) # ac8 <register_fini-0xf5ac>
   125ec:	fffff7b7          	lui	a5,0xfffff
   125f0:	ff040713          	addi	a4,s0,-16
   125f4:	00f70733          	add	a4,a4,a5
   125f8:	000017b7          	lui	a5,0x1
   125fc:	00f707b3          	add	a5,a4,a5
   12600:	1de00713          	li	a4,478
   12604:	ace7a623          	sw	a4,-1332(a5) # acc <register_fini-0xf5a8>
   12608:	fffff7b7          	lui	a5,0xfffff
   1260c:	ff040713          	addi	a4,s0,-16
   12610:	00f70733          	add	a4,a4,a5
   12614:	000017b7          	lui	a5,0x1
   12618:	00f707b3          	add	a5,a4,a5
   1261c:	30200713          	li	a4,770
   12620:	ace7a823          	sw	a4,-1328(a5) # ad0 <register_fini-0xf5a4>
   12624:	fffff7b7          	lui	a5,0xfffff
   12628:	ff040713          	addi	a4,s0,-16
   1262c:	00f70733          	add	a4,a4,a5
   12630:	000017b7          	lui	a5,0x1
   12634:	00f707b3          	add	a5,a4,a5
   12638:	0b400713          	li	a4,180
   1263c:	ace7aa23          	sw	a4,-1324(a5) # ad4 <register_fini-0xf5a0>
   12640:	fffff7b7          	lui	a5,0xfffff
   12644:	ff040713          	addi	a4,s0,-16
   12648:	00f70733          	add	a4,a4,a5
   1264c:	000017b7          	lui	a5,0x1
   12650:	00f707b3          	add	a5,a4,a5
   12654:	1e200713          	li	a4,482
   12658:	ace7ac23          	sw	a4,-1320(a5) # ad8 <register_fini-0xf59c>
   1265c:	fffff7b7          	lui	a5,0xfffff
   12660:	ff040713          	addi	a4,s0,-16
   12664:	00f70733          	add	a4,a4,a5
   12668:	000017b7          	lui	a5,0x1
   1266c:	00f707b3          	add	a5,a4,a5
   12670:	2b300713          	li	a4,691
   12674:	ace7ae23          	sw	a4,-1316(a5) # adc <register_fini-0xf598>
   12678:	fffff7b7          	lui	a5,0xfffff
   1267c:	ff040713          	addi	a4,s0,-16
   12680:	00f70733          	add	a4,a4,a5
   12684:	000017b7          	lui	a5,0x1
   12688:	00f707b3          	add	a5,a4,a5
   1268c:	2d500713          	li	a4,725
   12690:	aee7a023          	sw	a4,-1312(a5) # ae0 <register_fini-0xf594>
   12694:	fffff7b7          	lui	a5,0xfffff
   12698:	ff040713          	addi	a4,s0,-16
   1269c:	00f70733          	add	a4,a4,a5
   126a0:	000017b7          	lui	a5,0x1
   126a4:	00f707b3          	add	a5,a4,a5
   126a8:	0ad00713          	li	a4,173
   126ac:	aee7a223          	sw	a4,-1308(a5) # ae4 <register_fini-0xf590>
   126b0:	fffff7b7          	lui	a5,0xfffff
   126b4:	ff040713          	addi	a4,s0,-16
   126b8:	00f70733          	add	a4,a4,a5
   126bc:	000017b7          	lui	a5,0x1
   126c0:	00f707b3          	add	a5,a4,a5
   126c4:	0ba00713          	li	a4,186
   126c8:	aee7a423          	sw	a4,-1304(a5) # ae8 <register_fini-0xf58c>
   126cc:	fffff7b7          	lui	a5,0xfffff
   126d0:	ff040713          	addi	a4,s0,-16
   126d4:	00f70733          	add	a4,a4,a5
   126d8:	000017b7          	lui	a5,0x1
   126dc:	00f707b3          	add	a5,a4,a5
   126e0:	39200713          	li	a4,914
   126e4:	aee7a623          	sw	a4,-1300(a5) # aec <register_fini-0xf588>
   126e8:	fffff7b7          	lui	a5,0xfffff
   126ec:	ff040713          	addi	a4,s0,-16
   126f0:	00f70733          	add	a4,a4,a5
   126f4:	000017b7          	lui	a5,0x1
   126f8:	00f707b3          	add	a5,a4,a5
   126fc:	00100713          	li	a4,1
   12700:	aee7a823          	sw	a4,-1296(a5) # af0 <register_fini-0xf584>
   12704:	fffff7b7          	lui	a5,0xfffff
   12708:	ff040713          	addi	a4,s0,-16
   1270c:	00f70733          	add	a4,a4,a5
   12710:	000017b7          	lui	a5,0x1
   12714:	00f707b3          	add	a5,a4,a5
   12718:	3c300713          	li	a4,963
   1271c:	aee7aa23          	sw	a4,-1292(a5) # af4 <register_fini-0xf580>
   12720:	fffff7b7          	lui	a5,0xfffff
   12724:	ff040713          	addi	a4,s0,-16
   12728:	00f70733          	add	a4,a4,a5
   1272c:	000017b7          	lui	a5,0x1
   12730:	00f707b3          	add	a5,a4,a5
   12734:	0f700713          	li	a4,247
   12738:	aee7ac23          	sw	a4,-1288(a5) # af8 <register_fini-0xf57c>
   1273c:	fffff7b7          	lui	a5,0xfffff
   12740:	ff040713          	addi	a4,s0,-16
   12744:	00f70733          	add	a4,a4,a5
   12748:	000017b7          	lui	a5,0x1
   1274c:	00f707b3          	add	a5,a4,a5
   12750:	1d000713          	li	a4,464
   12754:	aee7ae23          	sw	a4,-1284(a5) # afc <register_fini-0xf578>
   12758:	fffff7b7          	lui	a5,0xfffff
   1275c:	ff040713          	addi	a4,s0,-16
   12760:	00f70733          	add	a4,a4,a5
   12764:	000017b7          	lui	a5,0x1
   12768:	00f707b3          	add	a5,a4,a5
   1276c:	16a00713          	li	a4,362
   12770:	b0e7a023          	sw	a4,-1280(a5) # b00 <register_fini-0xf574>
   12774:	fffff7b7          	lui	a5,0xfffff
   12778:	ff040713          	addi	a4,s0,-16
   1277c:	00f70733          	add	a4,a4,a5
   12780:	000017b7          	lui	a5,0x1
   12784:	00f707b3          	add	a5,a4,a5
   12788:	20900713          	li	a4,521
   1278c:	b0e7a223          	sw	a4,-1276(a5) # b04 <register_fini-0xf570>
   12790:	fffff7b7          	lui	a5,0xfffff
   12794:	ff040713          	addi	a4,s0,-16
   12798:	00f70733          	add	a4,a4,a5
   1279c:	000017b7          	lui	a5,0x1
   127a0:	00f707b3          	add	a5,a4,a5
   127a4:	0e900713          	li	a4,233
   127a8:	b0e7a423          	sw	a4,-1272(a5) # b08 <register_fini-0xf56c>
   127ac:	fffff7b7          	lui	a5,0xfffff
   127b0:	ff040713          	addi	a4,s0,-16
   127b4:	00f70733          	add	a4,a4,a5
   127b8:	000017b7          	lui	a5,0x1
   127bc:	00f707b3          	add	a5,a4,a5
   127c0:	07800713          	li	a4,120
   127c4:	b0e7a623          	sw	a4,-1268(a5) # b0c <register_fini-0xf568>
   127c8:	fffff7b7          	lui	a5,0xfffff
   127cc:	ff040713          	addi	a4,s0,-16
   127d0:	00f70733          	add	a4,a4,a5
   127d4:	000017b7          	lui	a5,0x1
   127d8:	00f707b3          	add	a5,a4,a5
   127dc:	02800713          	li	a4,40
   127e0:	b0e7a823          	sw	a4,-1264(a5) # b10 <register_fini-0xf564>
   127e4:	fffff7b7          	lui	a5,0xfffff
   127e8:	ff040713          	addi	a4,s0,-16
   127ec:	00f70733          	add	a4,a4,a5
   127f0:	000017b7          	lui	a5,0x1
   127f4:	00f707b3          	add	a5,a4,a5
   127f8:	30b00713          	li	a4,779
   127fc:	b0e7aa23          	sw	a4,-1260(a5) # b14 <register_fini-0xf560>
   12800:	fffff7b7          	lui	a5,0xfffff
   12804:	ff040713          	addi	a4,s0,-16
   12808:	00f70733          	add	a4,a4,a5
   1280c:	000017b7          	lui	a5,0x1
   12810:	00f707b3          	add	a5,a4,a5
   12814:	0c300713          	li	a4,195
   12818:	b0e7ac23          	sw	a4,-1256(a5) # b18 <register_fini-0xf55c>
   1281c:	fffff7b7          	lui	a5,0xfffff
   12820:	ff040713          	addi	a4,s0,-16
   12824:	00f70733          	add	a4,a4,a5
   12828:	000017b7          	lui	a5,0x1
   1282c:	00f707b3          	add	a5,a4,a5
   12830:	0a100713          	li	a4,161
   12834:	b0e7ae23          	sw	a4,-1252(a5) # b1c <register_fini-0xf558>
   12838:	fffff7b7          	lui	a5,0xfffff
   1283c:	ff040713          	addi	a4,s0,-16
   12840:	00f70733          	add	a4,a4,a5
   12844:	000017b7          	lui	a5,0x1
   12848:	00f707b3          	add	a5,a4,a5
   1284c:	2e700713          	li	a4,743
   12850:	b2e7a023          	sw	a4,-1248(a5) # b20 <register_fini-0xf554>
   12854:	fffff7b7          	lui	a5,0xfffff
   12858:	ff040713          	addi	a4,s0,-16
   1285c:	00f70733          	add	a4,a4,a5
   12860:	000017b7          	lui	a5,0x1
   12864:	00f707b3          	add	a5,a4,a5
   12868:	1b700713          	li	a4,439
   1286c:	b2e7a223          	sw	a4,-1244(a5) # b24 <register_fini-0xf550>
   12870:	fffff7b7          	lui	a5,0xfffff
   12874:	ff040713          	addi	a4,s0,-16
   12878:	00f70733          	add	a4,a4,a5
   1287c:	000017b7          	lui	a5,0x1
   12880:	00f707b3          	add	a5,a4,a5
   12884:	16300713          	li	a4,355
   12888:	b2e7a423          	sw	a4,-1240(a5) # b28 <register_fini-0xf54c>
   1288c:	fffff7b7          	lui	a5,0xfffff
   12890:	ff040713          	addi	a4,s0,-16
   12894:	00f70733          	add	a4,a4,a5
   12898:	000017b7          	lui	a5,0x1
   1289c:	00f707b3          	add	a5,a4,a5
   128a0:	19300713          	li	a4,403
   128a4:	b2e7a623          	sw	a4,-1236(a5) # b2c <register_fini-0xf548>
   128a8:	fffff7b7          	lui	a5,0xfffff
   128ac:	ff040713          	addi	a4,s0,-16
   128b0:	00f70733          	add	a4,a4,a5
   128b4:	000017b7          	lui	a5,0x1
   128b8:	00f707b3          	add	a5,a4,a5
   128bc:	08d00713          	li	a4,141
   128c0:	b2e7a823          	sw	a4,-1232(a5) # b30 <register_fini-0xf544>
   128c4:	fffff7b7          	lui	a5,0xfffff
   128c8:	ff040713          	addi	a4,s0,-16
   128cc:	00f70733          	add	a4,a4,a5
   128d0:	000017b7          	lui	a5,0x1
   128d4:	00f707b3          	add	a5,a4,a5
   128d8:	27900713          	li	a4,633
   128dc:	b2e7aa23          	sw	a4,-1228(a5) # b34 <register_fini-0xf540>
   128e0:	fe042423          	sw	zero,-24(s0)
   128e4:	fe042623          	sw	zero,-20(s0)
   128e8:	0480006f          	j	12930 <main+0x27e0>
   128ec:	fec42783          	lw	a5,-20(s0)
   128f0:	00279793          	slli	a5,a5,0x2
   128f4:	ff040713          	addi	a4,s0,-16
   128f8:	00f707b3          	add	a5,a4,a5
   128fc:	b407a703          	lw	a4,-1216(a5)
   12900:	fffff7b7          	lui	a5,0xfffff
   12904:	ff040693          	addi	a3,s0,-16
   12908:	00f686b3          	add	a3,a3,a5
   1290c:	fec42783          	lw	a5,-20(s0)
   12910:	00279793          	slli	a5,a5,0x2
   12914:	00f687b3          	add	a5,a3,a5
   12918:	6887a783          	lw	a5,1672(a5) # fffff688 <__global_pointer$+0xfffebe78>
   1291c:	00f707b3          	add	a5,a4,a5
   12920:	fef42423          	sw	a5,-24(s0)
   12924:	fec42783          	lw	a5,-20(s0)
   12928:	00178793          	addi	a5,a5,1
   1292c:	fef42623          	sw	a5,-20(s0)
   12930:	fec42703          	lw	a4,-20(s0)
   12934:	12b00793          	li	a5,299
   12938:	fae7dae3          	bge	a5,a4,128ec <main+0x279c>
   1293c:	00000013          	nop
   12940:	00000013          	nop
   12944:	1a010113          	addi	sp,sp,416
   12948:	7ec12083          	lw	ra,2028(sp)
   1294c:	7e812403          	lw	s0,2024(sp)
   12950:	7f010113          	addi	sp,sp,2032
   12954:	00008067          	ret<exit>:
   12958:	ff010113          	addi	sp,sp,-16
   1295c:	00000593          	li	a1,0
   12960:	00812423          	sw	s0,8(sp)
   12964:	00112623          	sw	ra,12(sp)
   12968:	00050413          	mv	s0,a0
   1296c:	194000ef          	jal	ra,12b00 <__call_exitprocs>
   12970:	c281a503          	lw	a0,-984(gp) # 13438 <_global_impure_ptr>
   12974:	03c52783          	lw	a5,60(a0) # 1303c <__fini_array_end+0x2c>
   12978:	00078463          	beqz	a5,12980 <exit+0x28>
   1297c:	000780e7          	jalr	a5
   12980:	00040513          	mv	a0,s0
   12984:	3a4000ef          	jal	ra,12d28 <_exit>

00012988 <__libc_init_array>:
   12988:	ff010113          	addi	sp,sp,-16
   1298c:	00812423          	sw	s0,8(sp)
   12990:	01212023          	sw	s2,0(sp)
   12994:	00013437          	lui	s0,0x13
   12998:	00013937          	lui	s2,0x13
   1299c:	00440793          	addi	a5,s0,4 # 13004 <__init_array_start>
   129a0:	00490913          	addi	s2,s2,4 # 13004 <__init_array_start>
   129a4:	40f90933          	sub	s2,s2,a5
   129a8:	00112623          	sw	ra,12(sp)
   129ac:	00912223          	sw	s1,4(sp)
   129b0:	40295913          	srai	s2,s2,0x2
   129b4:	02090063          	beqz	s2,129d4 <__libc_init_array+0x4c>
   129b8:	00440413          	addi	s0,s0,4
   129bc:	00000493          	li	s1,0
   129c0:	00042783          	lw	a5,0(s0)
   129c4:	00148493          	addi	s1,s1,1
   129c8:	00440413          	addi	s0,s0,4
   129cc:	000780e7          	jalr	a5
   129d0:	fe9918e3          	bne	s2,s1,129c0 <__libc_init_array+0x38>
   129d4:	00013437          	lui	s0,0x13
   129d8:	00013937          	lui	s2,0x13
   129dc:	00440793          	addi	a5,s0,4 # 13004 <__init_array_start>
   129e0:	00c90913          	addi	s2,s2,12 # 1300c <__init_array_end>
   129e4:	40f90933          	sub	s2,s2,a5
   129e8:	40295913          	srai	s2,s2,0x2
   129ec:	02090063          	beqz	s2,12a0c <__libc_init_array+0x84>
   129f0:	00440413          	addi	s0,s0,4
   129f4:	00000493          	li	s1,0
   129f8:	00042783          	lw	a5,0(s0)
   129fc:	00148493          	addi	s1,s1,1
   12a00:	00440413          	addi	s0,s0,4
   12a04:	000780e7          	jalr	a5
   12a08:	fe9918e3          	bne	s2,s1,129f8 <__libc_init_array+0x70>
   12a0c:	00c12083          	lw	ra,12(sp)
   12a10:	00812403          	lw	s0,8(sp)
   12a14:	00412483          	lw	s1,4(sp)
   12a18:	00012903          	lw	s2,0(sp)
   12a1c:	01010113          	addi	sp,sp,16
   12a20:	00008067          	ret

00012a24 <memset>:
   12a24:	00f00313          	li	t1,15
   12a28:	00050713          	mv	a4,a0
   12a2c:	02c37e63          	bgeu	t1,a2,12a68 <memset+0x44>
   12a30:	00f77793          	andi	a5,a4,15
   12a34:	0a079063          	bnez	a5,12ad4 <memset+0xb0>
   12a38:	08059263          	bnez	a1,12abc <memset+0x98>
   12a3c:	ff067693          	andi	a3,a2,-16
   12a40:	00f67613          	andi	a2,a2,15
   12a44:	00e686b3          	add	a3,a3,a4
   12a48:	00b72023          	sw	a1,0(a4)
   12a4c:	00b72223          	sw	a1,4(a4)
   12a50:	00b72423          	sw	a1,8(a4)
   12a54:	00b72623          	sw	a1,12(a4)
   12a58:	01070713          	addi	a4,a4,16
   12a5c:	fed766e3          	bltu	a4,a3,12a48 <memset+0x24>
   12a60:	00061463          	bnez	a2,12a68 <memset+0x44>
   12a64:	00008067          	ret
   12a68:	40c306b3          	sub	a3,t1,a2
   12a6c:	00269693          	slli	a3,a3,0x2
   12a70:	00000297          	auipc	t0,0x0
   12a74:	005686b3          	add	a3,a3,t0
   12a78:	00c68067          	jr	12(a3)
   12a7c:	00b70723          	sb	a1,14(a4)
   12a80:	00b706a3          	sb	a1,13(a4)
   12a84:	00b70623          	sb	a1,12(a4)
   12a88:	00b705a3          	sb	a1,11(a4)
   12a8c:	00b70523          	sb	a1,10(a4)
   12a90:	00b704a3          	sb	a1,9(a4)
   12a94:	00b70423          	sb	a1,8(a4)
   12a98:	00b703a3          	sb	a1,7(a4)
   12a9c:	00b70323          	sb	a1,6(a4)
   12aa0:	00b702a3          	sb	a1,5(a4)
   12aa4:	00b70223          	sb	a1,4(a4)
   12aa8:	00b701a3          	sb	a1,3(a4)
   12aac:	00b70123          	sb	a1,2(a4)
   12ab0:	00b700a3          	sb	a1,1(a4)
   12ab4:	00b70023          	sb	a1,0(a4)
   12ab8:	00008067          	ret
   12abc:	0ff5f593          	andi	a1,a1,255
   12ac0:	00859693          	slli	a3,a1,0x8
   12ac4:	00d5e5b3          	or	a1,a1,a3
   12ac8:	01059693          	slli	a3,a1,0x10
   12acc:	00d5e5b3          	or	a1,a1,a3
   12ad0:	f6dff06f          	j	12a3c <memset+0x18>
   12ad4:	00279693          	slli	a3,a5,0x2
   12ad8:	00000297          	auipc	t0,0x0
   12adc:	005686b3          	add	a3,a3,t0
   12ae0:	00008293          	mv	t0,ra
   12ae4:	fa0680e7          	jalr	-96(a3)
   12ae8:	00028093          	mv	ra,t0
   12aec:	ff078793          	addi	a5,a5,-16
   12af0:	40f70733          	sub	a4,a4,a5
   12af4:	00f60633          	add	a2,a2,a5
   12af8:	f6c378e3          	bgeu	t1,a2,12a68 <memset+0x44>
   12afc:	f3dff06f          	j	12a38 <memset+0x14>

00012b00 <__call_exitprocs>: