<main>:
   10150:	df010113          	addi	sp,sp,-528
   10154:	20112623          	sw	ra,524(sp)
   10158:	20812423          	sw	s0,520(sp)
   1015c:	21010413          	addi	s0,sp,528
   10160:	ef040793          	addi	a5,s0,-272
   10164:	0f800713          	li	a4,248
   10168:	00070613          	mv	a2,a4
   1016c:	00000593          	li	a1,0
   10170:	00078513          	mv	a0,a5
   10174:	514000ef          	jal	ra,10688 <memset>
   10178:	02900793          	li	a5,41
   1017c:	eef42823          	sw	a5,-272(s0)
   10180:	34100793          	li	a5,833
   10184:	eef42a23          	sw	a5,-268(s0)
   10188:	23400793          	li	a5,564
   1018c:	eef42c23          	sw	a5,-264(s0)
   10190:	0bb00793          	li	a5,187
   10194:	eef42e23          	sw	a5,-260(s0)
   10198:	2ed00793          	li	a5,749
   1019c:	f0f42023          	sw	a5,-256(s0)
   101a0:	15e00793          	li	a5,350
   101a4:	f0f42223          	sw	a5,-252(s0)
   101a8:	08400793          	li	a5,132
   101ac:	f0f42423          	sw	a5,-248(s0)
   101b0:	3b500793          	li	a5,949
   101b4:	f0f42623          	sw	a5,-244(s0)
   101b8:	24800793          	li	a5,584
   101bc:	f0f42823          	sw	a5,-240(s0)
   101c0:	32500793          	li	a5,805
   101c4:	f0f42a23          	sw	a5,-236(s0)
   101c8:	26d00793          	li	a5,621
   101cc:	f0f42c23          	sw	a5,-232(s0)
   101d0:	00600793          	li	a5,6
   101d4:	f0f42e23          	sw	a5,-228(s0)
   101d8:	3a300793          	li	a5,931
   101dc:	f2f42023          	sw	a5,-224(s0)
   101e0:	37a00793          	li	a5,890
   101e4:	f2f42223          	sw	a5,-220(s0)
   101e8:	18800793          	li	a5,392
   101ec:	f2f42423          	sw	a5,-216(s0)
   101f0:	2b600793          	li	a5,694
   101f4:	f2f42623          	sw	a5,-212(s0)
   101f8:	3c100793          	li	a5,961
   101fc:	f2f42823          	sw	a5,-208(s0)
   10200:	06e00793          	li	a5,110
   10204:	f2f42a23          	sw	a5,-204(s0)
   10208:	07400793          	li	a5,116
   1020c:	f2f42c23          	sw	a5,-200(s0)
   10210:	12800793          	li	a5,296
   10214:	f2f42e23          	sw	a5,-196(s0)
   10218:	1aa00793          	li	a5,426
   1021c:	f4f42023          	sw	a5,-192(s0)
   10220:	13a00793          	li	a5,314
   10224:	f4f42223          	sw	a5,-188(s0)
   10228:	29300793          	li	a5,659
   1022c:	f4f42423          	sw	a5,-184(s0)
   10230:	30600793          	li	a5,774
   10234:	f4f42623          	sw	a5,-180(s0)
   10238:	13f00793          	li	a5,319
   1023c:	f4f42823          	sw	a5,-176(s0)
   10240:	2a600793          	li	a5,678
   10244:	f4f42a23          	sw	a5,-172(s0)
   10248:	36b00793          	li	a5,875
   1024c:	f4f42c23          	sw	a5,-168(s0)
   10250:	17800793          	li	a5,376
   10254:	f4f42e23          	sw	a5,-164(s0)
   10258:	1da00793          	li	a5,474
   1025c:	f6f42023          	sw	a5,-160(s0)
   10260:	3aa00793          	li	a5,938
   10264:	f6f42223          	sw	a5,-156(s0)
   10268:	21b00793          	li	a5,539
   1026c:	f6f42423          	sw	a5,-152(s0)
   10270:	23900793          	li	a5,569
   10274:	f6f42623          	sw	a5,-148(s0)
   10278:	0cb00793          	li	a5,203
   1027c:	f6f42823          	sw	a5,-144(s0)
   10280:	11800793          	li	a5,280
   10284:	f6f42a23          	sw	a5,-140(s0)
   10288:	2f700793          	li	a5,759
   1028c:	f6f42c23          	sw	a5,-136(s0)
   10290:	25e00793          	li	a5,606
   10294:	f6f42e23          	sw	a5,-132(s0)
   10298:	1ff00793          	li	a5,511
   1029c:	f8f42023          	sw	a5,-128(s0)
   102a0:	29100793          	li	a5,657
   102a4:	f8f42223          	sw	a5,-124(s0)
   102a8:	0c300793          	li	a5,195
   102ac:	f8f42423          	sw	a5,-120(s0)
   102b0:	05100793          	li	a5,81
   102b4:	f8f42623          	sw	a5,-116(s0)
   102b8:	10b00793          	li	a5,267
   102bc:	f8f42823          	sw	a5,-112(s0)
   102c0:	0e500793          	li	a5,229
   102c4:	f8f42a23          	sw	a5,-108(s0)
   102c8:	15100793          	li	a5,337
   102cc:	f8f42c23          	sw	a5,-104(s0)
   102d0:	3b000793          	li	a5,944
   102d4:	f8f42e23          	sw	a5,-100(s0)
   102d8:	38600793          	li	a5,902
   102dc:	faf42023          	sw	a5,-96(s0)
   102e0:	0f100793          	li	a5,241
   102e4:	faf42223          	sw	a5,-92(s0)
   102e8:	39100793          	li	a5,913
   102ec:	faf42423          	sw	a5,-88(s0)
   102f0:	33a00793          	li	a5,826
   102f4:	faf42623          	sw	a5,-84(s0)
   102f8:	3a500793          	li	a5,933
   102fc:	faf42823          	sw	a5,-80(s0)
   10300:	3d900793          	li	a5,985
   10304:	faf42a23          	sw	a5,-76(s0)
   10308:	0c300793          	li	a5,195
   1030c:	faf42c23          	sw	a5,-72(s0)
   10310:	3c000793          	li	a5,960
   10314:	faf42e23          	sw	a5,-68(s0)
   10318:	23600793          	li	a5,566
   1031c:	fcf42023          	sw	a5,-64(s0)
   10320:	15e00793          	li	a5,350
   10324:	fcf42223          	sw	a5,-60(s0)
   10328:	28900793          	li	a5,649
   1032c:	fcf42423          	sw	a5,-56(s0)
   10330:	29100793          	li	a5,657
   10334:	fcf42623          	sw	a5,-52(s0)
   10338:	0b500793          	li	a5,181
   1033c:	fcf42823          	sw	a5,-48(s0)
   10340:	06f00793          	li	a5,111
   10344:	fcf42a23          	sw	a5,-44(s0)
   10348:	35b00793          	li	a5,859
   1034c:	fcf42c23          	sw	a5,-40(s0)
   10350:	04100793          	li	a5,65
   10354:	fcf42e23          	sw	a5,-36(s0)
   10358:	df840793          	addi	a5,s0,-520
   1035c:	0f800713          	li	a4,248
   10360:	00070613          	mv	a2,a4
   10364:	00000593          	li	a1,0
   10368:	00078513          	mv	a0,a5
   1036c:	31c000ef          	jal	ra,10688 <memset>
   10370:	1c600793          	li	a5,454
   10374:	def42c23          	sw	a5,-520(s0)
   10378:	14f00793          	li	a5,335
   1037c:	def42e23          	sw	a5,-516(s0)
   10380:	00100793          	li	a5,1
   10384:	e0f42023          	sw	a5,-512(s0)
   10388:	3dd00793          	li	a5,989
   1038c:	e0f42223          	sw	a5,-508(s0)
   10390:	16d00793          	li	a5,365
   10394:	e0f42423          	sw	a5,-504(s0)
   10398:	23c00793          	li	a5,572
   1039c:	e0f42623          	sw	a5,-500(s0)
   103a0:	04000793          	li	a5,64
   103a4:	e0f42823          	sw	a5,-496(s0)
   103a8:	09900793          	li	a5,153
   103ac:	e0f42a23          	sw	a5,-492(s0)
   103b0:	0d800793          	li	a5,216
   103b4:	e0f42c23          	sw	a5,-488(s0)
   103b8:	08c00793          	li	a5,140
   103bc:	e0f42e23          	sw	a5,-484(s0)
   103c0:	0d200793          	li	a5,210
   103c4:	e2f42023          	sw	a5,-480(s0)
   103c8:	23c00793          	li	a5,572
   103cc:	e2f42223          	sw	a5,-476(s0)
   103d0:	15300793          	li	a5,339
   103d4:	e2f42423          	sw	a5,-472(s0)
   103d8:	25100793          	li	a5,593
   103dc:	e2f42623          	sw	a5,-468(s0)
   103e0:	38200793          	li	a5,898
   103e4:	e2f42823          	sw	a5,-464(s0)
   103e8:	0e400793          	li	a5,228
   103ec:	e2f42a23          	sw	a5,-460(s0)
   103f0:	00c00793          	li	a5,12
   103f4:	e2f42c23          	sw	a5,-456(s0)
   103f8:	37300793          	li	a5,883
   103fc:	e2f42e23          	sw	a5,-452(s0)
   10400:	2ee00793          	li	a5,750
   10404:	e4f42023          	sw	a5,-448(s0)
   10408:	28600793          	li	a5,646
   1040c:	e4f42223          	sw	a5,-444(s0)
   10410:	1f400793          	li	a5,500
   10414:	e4f42423          	sw	a5,-440(s0)
   10418:	1b400793          	li	a5,436
   1041c:	e4f42623          	sw	a5,-436(s0)
   10420:	2bd00793          	li	a5,701
   10424:	e4f42823          	sw	a5,-432(s0)
   10428:	32c00793          	li	a5,812
   1042c:	e4f42a23          	sw	a5,-428(s0)
   10430:	3d500793          	li	a5,981
   10434:	e4f42c23          	sw	a5,-424(s0)
   10438:	09600793          	li	a5,150
   1043c:	e4f42e23          	sw	a5,-420(s0)
   10440:	2b800793          	li	a5,696
   10444:	e6f42023          	sw	a5,-416(s0)
   10448:	23400793          	li	a5,564
   1044c:	e6f42223          	sw	a5,-412(s0)
   10450:	11000793          	li	a5,272
   10454:	e6f42423          	sw	a5,-408(s0)
   10458:	10200793          	li	a5,258
   1045c:	e6f42623          	sw	a5,-404(s0)
   10460:	28700793          	li	a5,647
   10464:	e6f42823          	sw	a5,-400(s0)
   10468:	1fd00793          	li	a5,509
   1046c:	e6f42a23          	sw	a5,-396(s0)
   10470:	05800793          	li	a5,88
   10474:	e6f42c23          	sw	a5,-392(s0)
   10478:	2bf00793          	li	a5,703
   1047c:	e6f42e23          	sw	a5,-388(s0)
   10480:	29d00793          	li	a5,669
   10484:	e8f42023          	sw	a5,-384(s0)
   10488:	17700793          	li	a5,375
   1048c:	e8f42223          	sw	a5,-380(s0)
   10490:	22700793          	li	a5,551
   10494:	e8f42423          	sw	a5,-376(s0)
   10498:	3a800793          	li	a5,936
   1049c:	e8f42623          	sw	a5,-372(s0)
   104a0:	25000793          	li	a5,592
   104a4:	e8f42823          	sw	a5,-368(s0)
   104a8:	23900793          	li	a5,569
   104ac:	e8f42a23          	sw	a5,-364(s0)
   104b0:	3b800793          	li	a5,952
   104b4:	e8f42c23          	sw	a5,-360(s0)
   104b8:	32000793          	li	a5,800
   104bc:	e8f42e23          	sw	a5,-356(s0)
   104c0:	24800793          	li	a5,584
   104c4:	eaf42023          	sw	a5,-352(s0)
   104c8:	28300793          	li	a5,643
   104cc:	eaf42223          	sw	a5,-348(s0)
   104d0:	17000793          	li	a5,368
   104d4:	eaf42423          	sw	a5,-344(s0)
   104d8:	1e900793          	li	a5,489
   104dc:	eaf42623          	sw	a5,-340(s0)
   104e0:	14800793          	li	a5,328
   104e4:	eaf42823          	sw	a5,-336(s0)
   104e8:	13900793          	li	a5,313
   104ec:	eaf42a23          	sw	a5,-332(s0)
   104f0:	25000793          	li	a5,592
   104f4:	eaf42c23          	sw	a5,-328(s0)
   104f8:	18400793          	li	a5,388
   104fc:	eaf42e23          	sw	a5,-324(s0)
   10500:	21f00793          	li	a5,543
   10504:	ecf42023          	sw	a5,-320(s0)
   10508:	28900793          	li	a5,649
   1050c:	ecf42223          	sw	a5,-316(s0)
   10510:	3d300793          	li	a5,979
   10514:	ecf42423          	sw	a5,-312(s0)
   10518:	3e500793          	li	a5,997
   1051c:	ecf42623          	sw	a5,-308(s0)
   10520:	32e00793          	li	a5,814
   10524:	ecf42823          	sw	a5,-304(s0)
   10528:	04f00793          	li	a5,79
   1052c:	ecf42a23          	sw	a5,-300(s0)
   10530:	0d000793          	li	a5,208
   10534:	ecf42c23          	sw	a5,-296(s0)
   10538:	3e600793          	li	a5,998
   1053c:	ecf42e23          	sw	a5,-292(s0)
   10540:	27500793          	li	a5,629
   10544:	eef42023          	sw	a5,-288(s0)
   10548:	34f00793          	li	a5,847
   1054c:	eef42223          	sw	a5,-284(s0)
   10550:	fe042423          	sw	zero,-24(s0)
   10554:	fe042623          	sw	zero,-20(s0)
   10558:	0400006f          	j	10598 <main+0x448>
   1055c:	fec42783          	lw	a5,-20(s0)
   10560:	00279793          	slli	a5,a5,0x2
   10564:	ff040713          	addi	a4,s0,-16
   10568:	00f707b3          	add	a5,a4,a5
   1056c:	f007a703          	lw	a4,-256(a5) # ffffff00 <__global_pointer$+0xfffedd18>
   10570:	fec42783          	lw	a5,-20(s0)
   10574:	00279793          	slli	a5,a5,0x2
   10578:	ff040693          	addi	a3,s0,-16
   1057c:	00f687b3          	add	a5,a3,a5
   10580:	e087a783          	lw	a5,-504(a5)
   10584:	00f707b3          	add	a5,a4,a5
   10588:	fef42423          	sw	a5,-24(s0)
   1058c:	fec42783          	lw	a5,-20(s0)
   10590:	00178793          	addi	a5,a5,1
   10594:	fef42623          	sw	a5,-20(s0)
   10598:	fec42703          	lw	a4,-20(s0)
   1059c:	03c00793          	li	a5,60
   105a0:	fae7dee3          	bge	a5,a4,1055c <main+0x40c>
   105a4:	00000013          	nop
   105a8:	00000013          	nop
   105ac:	20c12083          	lw	ra,524(sp)
   105b0:	20812403          	lw	s0,520(sp)
   105b4:	21010113          	addi	sp,sp,528
   105b8:	00008067          	ret<exit>:
   105bc:	ff010113          	addi	sp,sp,-16
   105c0:	00000593          	li	a1,0
   105c4:	00812423          	sw	s0,8(sp)
   105c8:	00112623          	sw	ra,12(sp)
   105cc:	00050413          	mv	s0,a0
   105d0:	194000ef          	jal	ra,10764 <__call_exitprocs>
   105d4:	c281a503          	lw	a0,-984(gp) # 11e10 <_global_impure_ptr>
   105d8:	03c52783          	lw	a5,60(a0)
   105dc:	00078463          	beqz	a5,105e4 <exit+0x28>
   105e0:	000780e7          	jalr	a5
   105e4:	00040513          	mv	a0,s0
   105e8:	3a4000ef          	jal	ra,1098c <_exit>

000105ec <__libc_init_array>:
   105ec:	ff010113          	addi	sp,sp,-16
   105f0:	00812423          	sw	s0,8(sp)
   105f4:	01212023          	sw	s2,0(sp)
   105f8:	00012437          	lui	s0,0x12
   105fc:	00012937          	lui	s2,0x12
   10600:	9dc40793          	addi	a5,s0,-1572 # 119dc <__init_array_start>
   10604:	9dc90913          	addi	s2,s2,-1572 # 119dc <__init_array_start>
   10608:	40f90933          	sub	s2,s2,a5
   1060c:	00112623          	sw	ra,12(sp)
   10610:	00912223          	sw	s1,4(sp)
   10614:	40295913          	srai	s2,s2,0x2
   10618:	02090063          	beqz	s2,10638 <__libc_init_array+0x4c>
   1061c:	9dc40413          	addi	s0,s0,-1572
   10620:	00000493          	li	s1,0
   10624:	00042783          	lw	a5,0(s0)
   10628:	00148493          	addi	s1,s1,1
   1062c:	00440413          	addi	s0,s0,4
   10630:	000780e7          	jalr	a5
   10634:	fe9918e3          	bne	s2,s1,10624 <__libc_init_array+0x38>
   10638:	00012437          	lui	s0,0x12
   1063c:	00012937          	lui	s2,0x12
   10640:	9dc40793          	addi	a5,s0,-1572 # 119dc <__init_array_start>
   10644:	9e490913          	addi	s2,s2,-1564 # 119e4 <__init_array_end>
   10648:	40f90933          	sub	s2,s2,a5
   1064c:	40295913          	srai	s2,s2,0x2
   10650:	02090063          	beqz	s2,10670 <__libc_init_array+0x84>
   10654:	9dc40413          	addi	s0,s0,-1572
   10658:	00000493          	li	s1,0
   1065c:	00042783          	lw	a5,0(s0)
   10660:	00148493          	addi	s1,s1,1
   10664:	00440413          	addi	s0,s0,4
   10668:	000780e7          	jalr	a5
   1066c:	fe9918e3          	bne	s2,s1,1065c <__libc_init_array+0x70>
   10670:	00c12083          	lw	ra,12(sp)
   10674:	00812403          	lw	s0,8(sp)
   10678:	00412483          	lw	s1,4(sp)
   1067c:	00012903          	lw	s2,0(sp)
   10680:	01010113          	addi	sp,sp,16
   10684:	00008067          	ret

00010688 <memset>:
   10688:	00f00313          	li	t1,15
   1068c:	00050713          	mv	a4,a0
   10690:	02c37e63          	bgeu	t1,a2,106cc <memset+0x44>
   10694:	00f77793          	andi	a5,a4,15
   10698:	0a079063          	bnez	a5,10738 <memset+0xb0>
   1069c:	08059263          	bnez	a1,10720 <memset+0x98>
   106a0:	ff067693          	andi	a3,a2,-16
   106a4:	00f67613          	andi	a2,a2,15
   106a8:	00e686b3          	add	a3,a3,a4
   106ac:	00b72023          	sw	a1,0(a4)
   106b0:	00b72223          	sw	a1,4(a4)
   106b4:	00b72423          	sw	a1,8(a4)
   106b8:	00b72623          	sw	a1,12(a4)
   106bc:	01070713          	addi	a4,a4,16
   106c0:	fed766e3          	bltu	a4,a3,106ac <memset+0x24>
   106c4:	00061463          	bnez	a2,106cc <memset+0x44>
   106c8:	00008067          	ret
   106cc:	40c306b3          	sub	a3,t1,a2
   106d0:	00269693          	slli	a3,a3,0x2
   106d4:	00000297          	auipc	t0,0x0
   106d8:	005686b3          	add	a3,a3,t0
   106dc:	00c68067          	jr	12(a3)
   106e0:	00b70723          	sb	a1,14(a4)
   106e4:	00b706a3          	sb	a1,13(a4)
   106e8:	00b70623          	sb	a1,12(a4)
   106ec:	00b705a3          	sb	a1,11(a4)
   106f0:	00b70523          	sb	a1,10(a4)
   106f4:	00b704a3          	sb	a1,9(a4)
   106f8:	00b70423          	sb	a1,8(a4)
   106fc:	00b703a3          	sb	a1,7(a4)
   10700:	00b70323          	sb	a1,6(a4)
   10704:	00b702a3          	sb	a1,5(a4)
   10708:	00b70223          	sb	a1,4(a4)
   1070c:	00b701a3          	sb	a1,3(a4)
   10710:	00b70123          	sb	a1,2(a4)
   10714:	00b700a3          	sb	a1,1(a4)
   10718:	00b70023          	sb	a1,0(a4)
   1071c:	00008067          	ret
   10720:	0ff5f593          	andi	a1,a1,255
   10724:	00859693          	slli	a3,a1,0x8
   10728:	00d5e5b3          	or	a1,a1,a3
   1072c:	01059693          	slli	a3,a1,0x10
   10730:	00d5e5b3          	or	a1,a1,a3
   10734:	f6dff06f          	j	106a0 <memset+0x18>
   10738:	00279693          	slli	a3,a5,0x2
   1073c:	00000297          	auipc	t0,0x0
   10740:	005686b3          	add	a3,a3,t0
   10744:	00008293          	mv	t0,ra
   10748:	fa0680e7          	jalr	-96(a3)
   1074c:	00028093          	mv	ra,t0
   10750:	ff078793          	addi	a5,a5,-16
   10754:	40f70733          	sub	a4,a4,a5
   10758:	00f60633          	add	a2,a2,a5
   1075c:	f6c378e3          	bgeu	t1,a2,106cc <memset+0x44>
   10760:	f3dff06f          	j	1069c <memset+0x14>

00010764 <__call_exitprocs>: